
CountUp.elf:     file format elf32-littlearm

Sections:
Idx Name          Size      VMA       LMA       File off  Algn
  0 .isr_vector   00000188  08000000  08000000  00010000  2**0
                  CONTENTS, ALLOC, LOAD, READONLY, DATA
  1 .text         00002684  08000188  08000188  00010188  2**3
                  CONTENTS, ALLOC, LOAD, READONLY, CODE
  2 .rodata       00000088  08002810  08002810  00012810  2**3
                  CONTENTS, ALLOC, LOAD, READONLY, DATA
  3 .ARM.extab    00000000  08002898  08002898  00020094  2**0
                  CONTENTS
  4 .ARM          00000000  08002898  08002898  00020094  2**0
                  CONTENTS
  5 .preinit_array 00000000  08002898  08002898  00020094  2**0
                  CONTENTS, ALLOC, LOAD, DATA
  6 .init_array   00000004  08002898  08002898  00012898  2**2
                  CONTENTS, ALLOC, LOAD, DATA
  7 .fini_array   00000004  0800289c  0800289c  0001289c  2**2
                  CONTENTS, ALLOC, LOAD, DATA
  8 .data         00000094  20000000  080028a0  00020000  2**2
                  CONTENTS, ALLOC, LOAD, DATA
  9 .bss          00000020  20000094  08002934  00020094  2**2
                  ALLOC
 10 ._user_heap_stack 00000604  200000b4  08002934  000200b4  2**0
                  ALLOC
 11 .ARM.attributes 00000030  00000000  00000000  00020094  2**0
                  CONTENTS, READONLY
 12 .comment      00000053  00000000  00000000  000200c4  2**0
                  CONTENTS, READONLY
 13 .debug_frame  00000444  00000000  00000000  00020118  2**2
                  CONTENTS, READONLY, DEBUGGING, OCTETS

Disassembly of section .text:

08000188 <__do_global_dtors_aux>:
 8000188:	b510      	push	{r4, lr}
 800018a:	4c05      	ldr	r4, [pc, #20]	; (80001a0 <__do_global_dtors_aux+0x18>)
 800018c:	7823      	ldrb	r3, [r4, #0]
 800018e:	b933      	cbnz	r3, 800019e <__do_global_dtors_aux+0x16>
 8000190:	4b04      	ldr	r3, [pc, #16]	; (80001a4 <__do_global_dtors_aux+0x1c>)
 8000192:	b113      	cbz	r3, 800019a <__do_global_dtors_aux+0x12>
 8000194:	4804      	ldr	r0, [pc, #16]	; (80001a8 <__do_global_dtors_aux+0x20>)
 8000196:	f3af 8000 	nop.w
 800019a:	2301      	movs	r3, #1
 800019c:	7023      	strb	r3, [r4, #0]
 800019e:	bd10      	pop	{r4, pc}
 80001a0:	20000094 	.word	0x20000094
 80001a4:	00000000 	.word	0x00000000
 80001a8:	080027f4 	.word	0x080027f4

080001ac <frame_dummy>:
 80001ac:	b508      	push	{r3, lr}
 80001ae:	4b03      	ldr	r3, [pc, #12]	; (80001bc <frame_dummy+0x10>)
 80001b0:	b11b      	cbz	r3, 80001ba <frame_dummy+0xe>
 80001b2:	4903      	ldr	r1, [pc, #12]	; (80001c0 <frame_dummy+0x14>)
 80001b4:	4803      	ldr	r0, [pc, #12]	; (80001c4 <frame_dummy+0x18>)
 80001b6:	f3af 8000 	nop.w
 80001ba:	bd08      	pop	{r3, pc}
 80001bc:	00000000 	.word	0x00000000
 80001c0:	20000098 	.word	0x20000098
 80001c4:	080027f4 	.word	0x080027f4

080001c8 <__aeabi_drsub>:
 80001c8:	f081 4100 	eor.w	r1, r1, #2147483648	; 0x80000000
 80001cc:	e002      	b.n	80001d4 <__adddf3>
 80001ce:	bf00      	nop

080001d0 <__aeabi_dsub>:
 80001d0:	f083 4300 	eor.w	r3, r3, #2147483648	; 0x80000000

080001d4 <__adddf3>:
 80001d4:	b530      	push	{r4, r5, lr}
 80001d6:	ea4f 0441 	mov.w	r4, r1, lsl #1
 80001da:	ea4f 0543 	mov.w	r5, r3, lsl #1
 80001de:	ea94 0f05 	teq	r4, r5
 80001e2:	bf08      	it	eq
 80001e4:	ea90 0f02 	teqeq	r0, r2
 80001e8:	bf1f      	itttt	ne
 80001ea:	ea54 0c00 	orrsne.w	ip, r4, r0
 80001ee:	ea55 0c02 	orrsne.w	ip, r5, r2
 80001f2:	ea7f 5c64 	mvnsne.w	ip, r4, asr #21
 80001f6:	ea7f 5c65 	mvnsne.w	ip, r5, asr #21
 80001fa:	f000 80e2 	beq.w	80003c2 <__adddf3+0x1ee>
 80001fe:	ea4f 5454 	mov.w	r4, r4, lsr #21
 8000202:	ebd4 5555 	rsbs	r5, r4, r5, lsr #21
 8000206:	bfb8      	it	lt
 8000208:	426d      	neglt	r5, r5
 800020a:	dd0c      	ble.n	8000226 <__adddf3+0x52>
 800020c:	442c      	add	r4, r5
 800020e:	ea80 0202 	eor.w	r2, r0, r2
 8000212:	ea81 0303 	eor.w	r3, r1, r3
 8000216:	ea82 0000 	eor.w	r0, r2, r0
 800021a:	ea83 0101 	eor.w	r1, r3, r1
 800021e:	ea80 0202 	eor.w	r2, r0, r2
 8000222:	ea81 0303 	eor.w	r3, r1, r3
 8000226:	2d36      	cmp	r5, #54	; 0x36
 8000228:	bf88      	it	hi
 800022a:	bd30      	pophi	{r4, r5, pc}
 800022c:	f011 4f00 	tst.w	r1, #2147483648	; 0x80000000
 8000230:	ea4f 3101 	mov.w	r1, r1, lsl #12
 8000234:	f44f 1c80 	mov.w	ip, #1048576	; 0x100000
 8000238:	ea4c 3111 	orr.w	r1, ip, r1, lsr #12
 800023c:	d002      	beq.n	8000244 <__adddf3+0x70>
 800023e:	4240      	negs	r0, r0
 8000240:	eb61 0141 	sbc.w	r1, r1, r1, lsl #1
 8000244:	f013 4f00 	tst.w	r3, #2147483648	; 0x80000000
 8000248:	ea4f 3303 	mov.w	r3, r3, lsl #12
 800024c:	ea4c 3313 	orr.w	r3, ip, r3, lsr #12
 8000250:	d002      	beq.n	8000258 <__adddf3+0x84>
 8000252:	4252      	negs	r2, r2
 8000254:	eb63 0343 	sbc.w	r3, r3, r3, lsl #1
 8000258:	ea94 0f05 	teq	r4, r5
 800025c:	f000 80a7 	beq.w	80003ae <__adddf3+0x1da>
 8000260:	f1a4 0401 	sub.w	r4, r4, #1
 8000264:	f1d5 0e20 	rsbs	lr, r5, #32
 8000268:	db0d      	blt.n	8000286 <__adddf3+0xb2>
 800026a:	fa02 fc0e 	lsl.w	ip, r2, lr
 800026e:	fa22 f205 	lsr.w	r2, r2, r5
 8000272:	1880      	adds	r0, r0, r2
 8000274:	f141 0100 	adc.w	r1, r1, #0
 8000278:	fa03 f20e 	lsl.w	r2, r3, lr
 800027c:	1880      	adds	r0, r0, r2
 800027e:	fa43 f305 	asr.w	r3, r3, r5
 8000282:	4159      	adcs	r1, r3
 8000284:	e00e      	b.n	80002a4 <__adddf3+0xd0>
 8000286:	f1a5 0520 	sub.w	r5, r5, #32
 800028a:	f10e 0e20 	add.w	lr, lr, #32
 800028e:	2a01      	cmp	r2, #1
 8000290:	fa03 fc0e 	lsl.w	ip, r3, lr
 8000294:	bf28      	it	cs
 8000296:	f04c 0c02 	orrcs.w	ip, ip, #2
 800029a:	fa43 f305 	asr.w	r3, r3, r5
 800029e:	18c0      	adds	r0, r0, r3
 80002a0:	eb51 71e3 	adcs.w	r1, r1, r3, asr #31
 80002a4:	f001 4500 	and.w	r5, r1, #2147483648	; 0x80000000
 80002a8:	d507      	bpl.n	80002ba <__adddf3+0xe6>
 80002aa:	f04f 0e00 	mov.w	lr, #0
 80002ae:	f1dc 0c00 	rsbs	ip, ip, #0
 80002b2:	eb7e 0000 	sbcs.w	r0, lr, r0
 80002b6:	eb6e 0101 	sbc.w	r1, lr, r1
 80002ba:	f5b1 1f80 	cmp.w	r1, #1048576	; 0x100000
 80002be:	d31b      	bcc.n	80002f8 <__adddf3+0x124>
 80002c0:	f5b1 1f00 	cmp.w	r1, #2097152	; 0x200000
 80002c4:	d30c      	bcc.n	80002e0 <__adddf3+0x10c>
 80002c6:	0849      	lsrs	r1, r1, #1
 80002c8:	ea5f 0030 	movs.w	r0, r0, rrx
 80002cc:	ea4f 0c3c 	mov.w	ip, ip, rrx
 80002d0:	f104 0401 	add.w	r4, r4, #1
 80002d4:	ea4f 5244 	mov.w	r2, r4, lsl #21
 80002d8:	f512 0f80 	cmn.w	r2, #4194304	; 0x400000
 80002dc:	f080 809a 	bcs.w	8000414 <__adddf3+0x240>
 80002e0:	f1bc 4f00 	cmp.w	ip, #2147483648	; 0x80000000
 80002e4:	bf08      	it	eq
 80002e6:	ea5f 0c50 	movseq.w	ip, r0, lsr #1
 80002ea:	f150 0000 	adcs.w	r0, r0, #0
 80002ee:	eb41 5104 	adc.w	r1, r1, r4, lsl #20
 80002f2:	ea41 0105 	orr.w	r1, r1, r5
 80002f6:	bd30      	pop	{r4, r5, pc}
 80002f8:	ea5f 0c4c 	movs.w	ip, ip, lsl #1
 80002fc:	4140      	adcs	r0, r0
 80002fe:	eb41 0101 	adc.w	r1, r1, r1
 8000302:	3c01      	subs	r4, #1
 8000304:	bf28      	it	cs
 8000306:	f5b1 1f80 	cmpcs.w	r1, #1048576	; 0x100000
 800030a:	d2e9      	bcs.n	80002e0 <__adddf3+0x10c>
 800030c:	f091 0f00 	teq	r1, #0
 8000310:	bf04      	itt	eq
 8000312:	4601      	moveq	r1, r0
 8000314:	2000      	moveq	r0, #0
 8000316:	fab1 f381 	clz	r3, r1
 800031a:	bf08      	it	eq
 800031c:	3320      	addeq	r3, #32
 800031e:	f1a3 030b 	sub.w	r3, r3, #11
 8000322:	f1b3 0220 	subs.w	r2, r3, #32
 8000326:	da0c      	bge.n	8000342 <__adddf3+0x16e>
 8000328:	320c      	adds	r2, #12
 800032a:	dd08      	ble.n	800033e <__adddf3+0x16a>
 800032c:	f102 0c14 	add.w	ip, r2, #20
 8000330:	f1c2 020c 	rsb	r2, r2, #12
 8000334:	fa01 f00c 	lsl.w	r0, r1, ip
 8000338:	fa21 f102 	lsr.w	r1, r1, r2
 800033c:	e00c      	b.n	8000358 <__adddf3+0x184>
 800033e:	f102 0214 	add.w	r2, r2, #20
 8000342:	bfd8      	it	le
 8000344:	f1c2 0c20 	rsble	ip, r2, #32
 8000348:	fa01 f102 	lsl.w	r1, r1, r2
 800034c:	fa20 fc0c 	lsr.w	ip, r0, ip
 8000350:	bfdc      	itt	le
 8000352:	ea41 010c 	orrle.w	r1, r1, ip
 8000356:	4090      	lslle	r0, r2
 8000358:	1ae4      	subs	r4, r4, r3
 800035a:	bfa2      	ittt	ge
 800035c:	eb01 5104 	addge.w	r1, r1, r4, lsl #20
 8000360:	4329      	orrge	r1, r5
 8000362:	bd30      	popge	{r4, r5, pc}
 8000364:	ea6f 0404 	mvn.w	r4, r4
 8000368:	3c1f      	subs	r4, #31
 800036a:	da1c      	bge.n	80003a6 <__adddf3+0x1d2>
 800036c:	340c      	adds	r4, #12
 800036e:	dc0e      	bgt.n	800038e <__adddf3+0x1ba>
 8000370:	f104 0414 	add.w	r4, r4, #20
 8000374:	f1c4 0220 	rsb	r2, r4, #32
 8000378:	fa20 f004 	lsr.w	r0, r0, r4
 800037c:	fa01 f302 	lsl.w	r3, r1, r2
 8000380:	ea40 0003 	orr.w	r0, r0, r3
 8000384:	fa21 f304 	lsr.w	r3, r1, r4
 8000388:	ea45 0103 	orr.w	r1, r5, r3
 800038c:	bd30      	pop	{r4, r5, pc}
 800038e:	f1c4 040c 	rsb	r4, r4, #12
 8000392:	f1c4 0220 	rsb	r2, r4, #32
 8000396:	fa20 f002 	lsr.w	r0, r0, r2
 800039a:	fa01 f304 	lsl.w	r3, r1, r4
 800039e:	ea40 0003 	orr.w	r0, r0, r3
 80003a2:	4629      	mov	r1, r5
 80003a4:	bd30      	pop	{r4, r5, pc}
 80003a6:	fa21 f004 	lsr.w	r0, r1, r4
 80003aa:	4629      	mov	r1, r5
 80003ac:	bd30      	pop	{r4, r5, pc}
 80003ae:	f094 0f00 	teq	r4, #0
 80003b2:	f483 1380 	eor.w	r3, r3, #1048576	; 0x100000
 80003b6:	bf06      	itte	eq
 80003b8:	f481 1180 	eoreq.w	r1, r1, #1048576	; 0x100000
 80003bc:	3401      	addeq	r4, #1
 80003be:	3d01      	subne	r5, #1
 80003c0:	e74e      	b.n	8000260 <__adddf3+0x8c>
 80003c2:	ea7f 5c64 	mvns.w	ip, r4, asr #21
 80003c6:	bf18      	it	ne
 80003c8:	ea7f 5c65 	mvnsne.w	ip, r5, asr #21
 80003cc:	d029      	beq.n	8000422 <__adddf3+0x24e>
 80003ce:	ea94 0f05 	teq	r4, r5
 80003d2:	bf08      	it	eq
 80003d4:	ea90 0f02 	teqeq	r0, r2
 80003d8:	d005      	beq.n	80003e6 <__adddf3+0x212>
 80003da:	ea54 0c00 	orrs.w	ip, r4, r0
 80003de:	bf04      	itt	eq
 80003e0:	4619      	moveq	r1, r3
 80003e2:	4610      	moveq	r0, r2
 80003e4:	bd30      	pop	{r4, r5, pc}
 80003e6:	ea91 0f03 	teq	r1, r3
 80003ea:	bf1e      	ittt	ne
 80003ec:	2100      	movne	r1, #0
 80003ee:	2000      	movne	r0, #0
 80003f0:	bd30      	popne	{r4, r5, pc}
 80003f2:	ea5f 5c54 	movs.w	ip, r4, lsr #21
 80003f6:	d105      	bne.n	8000404 <__adddf3+0x230>
 80003f8:	0040      	lsls	r0, r0, #1
 80003fa:	4149      	adcs	r1, r1
 80003fc:	bf28      	it	cs
 80003fe:	f041 4100 	orrcs.w	r1, r1, #2147483648	; 0x80000000
 8000402:	bd30      	pop	{r4, r5, pc}
 8000404:	f514 0480 	adds.w	r4, r4, #4194304	; 0x400000
 8000408:	bf3c      	itt	cc
 800040a:	f501 1180 	addcc.w	r1, r1, #1048576	; 0x100000
 800040e:	bd30      	popcc	{r4, r5, pc}
 8000410:	f001 4500 	and.w	r5, r1, #2147483648	; 0x80000000
 8000414:	f045 41fe 	orr.w	r1, r5, #2130706432	; 0x7f000000
 8000418:	f441 0170 	orr.w	r1, r1, #15728640	; 0xf00000
 800041c:	f04f 0000 	mov.w	r0, #0
 8000420:	bd30      	pop	{r4, r5, pc}
 8000422:	ea7f 5c64 	mvns.w	ip, r4, asr #21
 8000426:	bf1a      	itte	ne
 8000428:	4619      	movne	r1, r3
 800042a:	4610      	movne	r0, r2
 800042c:	ea7f 5c65 	mvnseq.w	ip, r5, asr #21
 8000430:	bf1c      	itt	ne
 8000432:	460b      	movne	r3, r1
 8000434:	4602      	movne	r2, r0
 8000436:	ea50 3401 	orrs.w	r4, r0, r1, lsl #12
 800043a:	bf06      	itte	eq
 800043c:	ea52 3503 	orrseq.w	r5, r2, r3, lsl #12
 8000440:	ea91 0f03 	teqeq	r1, r3
 8000444:	f441 2100 	orrne.w	r1, r1, #524288	; 0x80000
 8000448:	bd30      	pop	{r4, r5, pc}
 800044a:	bf00      	nop

0800044c <__aeabi_ui2d>:
 800044c:	f090 0f00 	teq	r0, #0
 8000450:	bf04      	itt	eq
 8000452:	2100      	moveq	r1, #0
 8000454:	4770      	bxeq	lr
 8000456:	b530      	push	{r4, r5, lr}
 8000458:	f44f 6480 	mov.w	r4, #1024	; 0x400
 800045c:	f104 0432 	add.w	r4, r4, #50	; 0x32
 8000460:	f04f 0500 	mov.w	r5, #0
 8000464:	f04f 0100 	mov.w	r1, #0
 8000468:	e750      	b.n	800030c <__adddf3+0x138>
 800046a:	bf00      	nop

0800046c <__aeabi_i2d>:
 800046c:	f090 0f00 	teq	r0, #0
 8000470:	bf04      	itt	eq
 8000472:	2100      	moveq	r1, #0
 8000474:	4770      	bxeq	lr
 8000476:	b530      	push	{r4, r5, lr}
 8000478:	f44f 6480 	mov.w	r4, #1024	; 0x400
 800047c:	f104 0432 	add.w	r4, r4, #50	; 0x32
 8000480:	f010 4500 	ands.w	r5, r0, #2147483648	; 0x80000000
 8000484:	bf48      	it	mi
 8000486:	4240      	negmi	r0, r0
 8000488:	f04f 0100 	mov.w	r1, #0
 800048c:	e73e      	b.n	800030c <__adddf3+0x138>
 800048e:	bf00      	nop

08000490 <__aeabi_f2d>:
 8000490:	0042      	lsls	r2, r0, #1
 8000492:	ea4f 01e2 	mov.w	r1, r2, asr #3
 8000496:	ea4f 0131 	mov.w	r1, r1, rrx
 800049a:	ea4f 7002 	mov.w	r0, r2, lsl #28
 800049e:	bf1f      	itttt	ne
 80004a0:	f012 437f 	andsne.w	r3, r2, #4278190080	; 0xff000000
 80004a4:	f093 4f7f 	teqne	r3, #4278190080	; 0xff000000
 80004a8:	f081 5160 	eorne.w	r1, r1, #939524096	; 0x38000000
 80004ac:	4770      	bxne	lr
 80004ae:	f032 427f 	bics.w	r2, r2, #4278190080	; 0xff000000
 80004b2:	bf08      	it	eq
 80004b4:	4770      	bxeq	lr
 80004b6:	f093 4f7f 	teq	r3, #4278190080	; 0xff000000
 80004ba:	bf04      	itt	eq
 80004bc:	f441 2100 	orreq.w	r1, r1, #524288	; 0x80000
 80004c0:	4770      	bxeq	lr
 80004c2:	b530      	push	{r4, r5, lr}
 80004c4:	f44f 7460 	mov.w	r4, #896	; 0x380
 80004c8:	f001 4500 	and.w	r5, r1, #2147483648	; 0x80000000
 80004cc:	f021 4100 	bic.w	r1, r1, #2147483648	; 0x80000000
 80004d0:	e71c      	b.n	800030c <__adddf3+0x138>
 80004d2:	bf00      	nop

080004d4 <__aeabi_ul2d>:
 80004d4:	ea50 0201 	orrs.w	r2, r0, r1
 80004d8:	bf08      	it	eq
 80004da:	4770      	bxeq	lr
 80004dc:	b530      	push	{r4, r5, lr}
 80004de:	f04f 0500 	mov.w	r5, #0
 80004e2:	e00a      	b.n	80004fa <__aeabi_l2d+0x16>

080004e4 <__aeabi_l2d>:
 80004e4:	ea50 0201 	orrs.w	r2, r0, r1
 80004e8:	bf08      	it	eq
 80004ea:	4770      	bxeq	lr
 80004ec:	b530      	push	{r4, r5, lr}
 80004ee:	f011 4500 	ands.w	r5, r1, #2147483648	; 0x80000000
 80004f2:	d502      	bpl.n	80004fa <__aeabi_l2d+0x16>
 80004f4:	4240      	negs	r0, r0
 80004f6:	eb61 0141 	sbc.w	r1, r1, r1, lsl #1
 80004fa:	f44f 6480 	mov.w	r4, #1024	; 0x400
 80004fe:	f104 0432 	add.w	r4, r4, #50	; 0x32
 8000502:	ea5f 5c91 	movs.w	ip, r1, lsr #22
 8000506:	f43f aed8 	beq.w	80002ba <__adddf3+0xe6>
 800050a:	f04f 0203 	mov.w	r2, #3
 800050e:	ea5f 0cdc 	movs.w	ip, ip, lsr #3
 8000512:	bf18      	it	ne
 8000514:	3203      	addne	r2, #3
 8000516:	ea5f 0cdc 	movs.w	ip, ip, lsr #3
 800051a:	bf18      	it	ne
 800051c:	3203      	addne	r2, #3
 800051e:	eb02 02dc 	add.w	r2, r2, ip, lsr #3
 8000522:	f1c2 0320 	rsb	r3, r2, #32
 8000526:	fa00 fc03 	lsl.w	ip, r0, r3
 800052a:	fa20 f002 	lsr.w	r0, r0, r2
 800052e:	fa01 fe03 	lsl.w	lr, r1, r3
 8000532:	ea40 000e 	orr.w	r0, r0, lr
 8000536:	fa21 f102 	lsr.w	r1, r1, r2
 800053a:	4414      	add	r4, r2
 800053c:	e6bd      	b.n	80002ba <__adddf3+0xe6>
 800053e:	bf00      	nop

08000540 <__aeabi_dmul>:
 8000540:	b570      	push	{r4, r5, r6, lr}
 8000542:	f04f 0cff 	mov.w	ip, #255	; 0xff
 8000546:	f44c 6ce0 	orr.w	ip, ip, #1792	; 0x700
 800054a:	ea1c 5411 	ands.w	r4, ip, r1, lsr #20
 800054e:	bf1d      	ittte	ne
 8000550:	ea1c 5513 	andsne.w	r5, ip, r3, lsr #20
 8000554:	ea94 0f0c 	teqne	r4, ip
 8000558:	ea95 0f0c 	teqne	r5, ip
 800055c:	f000 f8de 	bleq	800071c <__aeabi_dmul+0x1dc>
 8000560:	442c      	add	r4, r5
 8000562:	ea81 0603 	eor.w	r6, r1, r3
 8000566:	ea21 514c 	bic.w	r1, r1, ip, lsl #21
 800056a:	ea23 534c 	bic.w	r3, r3, ip, lsl #21
 800056e:	ea50 3501 	orrs.w	r5, r0, r1, lsl #12
 8000572:	bf18      	it	ne
 8000574:	ea52 3503 	orrsne.w	r5, r2, r3, lsl #12
 8000578:	f441 1180 	orr.w	r1, r1, #1048576	; 0x100000
 800057c:	f443 1380 	orr.w	r3, r3, #1048576	; 0x100000
 8000580:	d038      	beq.n	80005f4 <__aeabi_dmul+0xb4>
 8000582:	fba0 ce02 	umull	ip, lr, r0, r2
 8000586:	f04f 0500 	mov.w	r5, #0
 800058a:	fbe1 e502 	umlal	lr, r5, r1, r2
 800058e:	f006 4200 	and.w	r2, r6, #2147483648	; 0x80000000
 8000592:	fbe0 e503 	umlal	lr, r5, r0, r3
 8000596:	f04f 0600 	mov.w	r6, #0
 800059a:	fbe1 5603 	umlal	r5, r6, r1, r3
 800059e:	f09c 0f00 	teq	ip, #0
 80005a2:	bf18      	it	ne
 80005a4:	f04e 0e01 	orrne.w	lr, lr, #1
 80005a8:	f1a4 04ff 	sub.w	r4, r4, #255	; 0xff
 80005ac:	f5b6 7f00 	cmp.w	r6, #512	; 0x200
 80005b0:	f564 7440 	sbc.w	r4, r4, #768	; 0x300
 80005b4:	d204      	bcs.n	80005c0 <__aeabi_dmul+0x80>
 80005b6:	ea5f 0e4e 	movs.w	lr, lr, lsl #1
 80005ba:	416d      	adcs	r5, r5
 80005bc:	eb46 0606 	adc.w	r6, r6, r6
 80005c0:	ea42 21c6 	orr.w	r1, r2, r6, lsl #11
 80005c4:	ea41 5155 	orr.w	r1, r1, r5, lsr #21
 80005c8:	ea4f 20c5 	mov.w	r0, r5, lsl #11
 80005cc:	ea40 505e 	orr.w	r0, r0, lr, lsr #21
 80005d0:	ea4f 2ece 	mov.w	lr, lr, lsl #11
 80005d4:	f1b4 0cfd 	subs.w	ip, r4, #253	; 0xfd
 80005d8:	bf88      	it	hi
 80005da:	f5bc 6fe0 	cmphi.w	ip, #1792	; 0x700
 80005de:	d81e      	bhi.n	800061e <__aeabi_dmul+0xde>
 80005e0:	f1be 4f00 	cmp.w	lr, #2147483648	; 0x80000000
 80005e4:	bf08      	it	eq
 80005e6:	ea5f 0e50 	movseq.w	lr, r0, lsr #1
 80005ea:	f150 0000 	adcs.w	r0, r0, #0
 80005ee:	eb41 5104 	adc.w	r1, r1, r4, lsl #20
 80005f2:	bd70      	pop	{r4, r5, r6, pc}
 80005f4:	f006 4600 	and.w	r6, r6, #2147483648	; 0x80000000
 80005f8:	ea46 0101 	orr.w	r1, r6, r1
 80005fc:	ea40 0002 	orr.w	r0, r0, r2
 8000600:	ea81 0103 	eor.w	r1, r1, r3
 8000604:	ebb4 045c 	subs.w	r4, r4, ip, lsr #1
 8000608:	bfc2      	ittt	gt
 800060a:	ebd4 050c 	rsbsgt	r5, r4, ip
 800060e:	ea41 5104 	orrgt.w	r1, r1, r4, lsl #20
 8000612:	bd70      	popgt	{r4, r5, r6, pc}
 8000614:	f441 1180 	orr.w	r1, r1, #1048576	; 0x100000
 8000618:	f04f 0e00 	mov.w	lr, #0
 800061c:	3c01      	subs	r4, #1
 800061e:	f300 80ab 	bgt.w	8000778 <__aeabi_dmul+0x238>
 8000622:	f114 0f36 	cmn.w	r4, #54	; 0x36
 8000626:	bfde      	ittt	le
 8000628:	2000      	movle	r0, #0
 800062a:	f001 4100 	andle.w	r1, r1, #2147483648	; 0x80000000
 800062e:	bd70      	pople	{r4, r5, r6, pc}
 8000630:	f1c4 0400 	rsb	r4, r4, #0
 8000634:	3c20      	subs	r4, #32
 8000636:	da35      	bge.n	80006a4 <__aeabi_dmul+0x164>
 8000638:	340c      	adds	r4, #12
 800063a:	dc1b      	bgt.n	8000674 <__aeabi_dmul+0x134>
 800063c:	f104 0414 	add.w	r4, r4, #20
 8000640:	f1c4 0520 	rsb	r5, r4, #32
 8000644:	fa00 f305 	lsl.w	r3, r0, r5
 8000648:	fa20 f004 	lsr.w	r0, r0, r4
 800064c:	fa01 f205 	lsl.w	r2, r1, r5
 8000650:	ea40 0002 	orr.w	r0, r0, r2
 8000654:	f001 4200 	and.w	r2, r1, #2147483648	; 0x80000000
 8000658:	f021 4100 	bic.w	r1, r1, #2147483648	; 0x80000000
 800065c:	eb10 70d3 	adds.w	r0, r0, r3, lsr #31
 8000660:	fa21 f604 	lsr.w	r6, r1, r4
 8000664:	eb42 0106 	adc.w	r1, r2, r6
 8000668:	ea5e 0e43 	orrs.w	lr, lr, r3, lsl #1
 800066c:	bf08      	it	eq
 800066e:	ea20 70d3 	biceq.w	r0, r0, r3, lsr #31
 8000672:	bd70      	pop	{r4, r5, r6, pc}
 8000674:	f1c4 040c 	rsb	r4, r4, #12
 8000678:	f1c4 0520 	rsb	r5, r4, #32
 800067c:	fa00 f304 	lsl.w	r3, r0, r4
 8000680:	fa20 f005 	lsr.w	r0, r0, r5
 8000684:	fa01 f204 	lsl.w	r2, r1, r4
 8000688:	ea40 0002 	orr.w	r0, r0, r2
 800068c:	f001 4100 	and.w	r1, r1, #2147483648	; 0x80000000
 8000690:	eb10 70d3 	adds.w	r0, r0, r3, lsr #31
 8000694:	f141 0100 	adc.w	r1, r1, #0
 8000698:	ea5e 0e43 	orrs.w	lr, lr, r3, lsl #1
 800069c:	bf08      	it	eq
 800069e:	ea20 70d3 	biceq.w	r0, r0, r3, lsr #31
 80006a2:	bd70      	pop	{r4, r5, r6, pc}
 80006a4:	f1c4 0520 	rsb	r5, r4, #32
 80006a8:	fa00 f205 	lsl.w	r2, r0, r5
 80006ac:	ea4e 0e02 	orr.w	lr, lr, r2
 80006b0:	fa20 f304 	lsr.w	r3, r0, r4
 80006b4:	fa01 f205 	lsl.w	r2, r1, r5
 80006b8:	ea43 0302 	orr.w	r3, r3, r2
 80006bc:	fa21 f004 	lsr.w	r0, r1, r4
 80006c0:	f001 4100 	and.w	r1, r1, #2147483648	; 0x80000000
 80006c4:	fa21 f204 	lsr.w	r2, r1, r4
 80006c8:	ea20 0002 	bic.w	r0, r0, r2
 80006cc:	eb00 70d3 	add.w	r0, r0, r3, lsr #31
 80006d0:	ea5e 0e43 	orrs.w	lr, lr, r3, lsl #1
 80006d4:	bf08      	it	eq
 80006d6:	ea20 70d3 	biceq.w	r0, r0, r3, lsr #31
 80006da:	bd70      	pop	{r4, r5, r6, pc}
 80006dc:	f094 0f00 	teq	r4, #0
 80006e0:	d10f      	bne.n	8000702 <__aeabi_dmul+0x1c2>
 80006e2:	f001 4600 	and.w	r6, r1, #2147483648	; 0x80000000
 80006e6:	0040      	lsls	r0, r0, #1
 80006e8:	eb41 0101 	adc.w	r1, r1, r1
 80006ec:	f411 1f80 	tst.w	r1, #1048576	; 0x100000
 80006f0:	bf08      	it	eq
 80006f2:	3c01      	subeq	r4, #1
 80006f4:	d0f7      	beq.n	80006e6 <__aeabi_dmul+0x1a6>
 80006f6:	ea41 0106 	orr.w	r1, r1, r6
 80006fa:	f095 0f00 	teq	r5, #0
 80006fe:	bf18      	it	ne
 8000700:	4770      	bxne	lr
 8000702:	f003 4600 	and.w	r6, r3, #2147483648	; 0x80000000
 8000706:	0052      	lsls	r2, r2, #1
 8000708:	eb43 0303 	adc.w	r3, r3, r3
 800070c:	f413 1f80 	tst.w	r3, #1048576	; 0x100000
 8000710:	bf08      	it	eq
 8000712:	3d01      	subeq	r5, #1
 8000714:	d0f7      	beq.n	8000706 <__aeabi_dmul+0x1c6>
 8000716:	ea43 0306 	orr.w	r3, r3, r6
 800071a:	4770      	bx	lr
 800071c:	ea94 0f0c 	teq	r4, ip
 8000720:	ea0c 5513 	and.w	r5, ip, r3, lsr #20
 8000724:	bf18      	it	ne
 8000726:	ea95 0f0c 	teqne	r5, ip
 800072a:	d00c      	beq.n	8000746 <__aeabi_dmul+0x206>
 800072c:	ea50 0641 	orrs.w	r6, r0, r1, lsl #1
 8000730:	bf18      	it	ne
 8000732:	ea52 0643 	orrsne.w	r6, r2, r3, lsl #1
 8000736:	d1d1      	bne.n	80006dc <__aeabi_dmul+0x19c>
 8000738:	ea81 0103 	eor.w	r1, r1, r3
 800073c:	f001 4100 	and.w	r1, r1, #2147483648	; 0x80000000
 8000740:	f04f 0000 	mov.w	r0, #0
 8000744:	bd70      	pop	{r4, r5, r6, pc}
 8000746:	ea50 0641 	orrs.w	r6, r0, r1, lsl #1
 800074a:	bf06      	itte	eq
 800074c:	4610      	moveq	r0, r2
 800074e:	4619      	moveq	r1, r3
 8000750:	ea52 0643 	orrsne.w	r6, r2, r3, lsl #1
 8000754:	d019      	beq.n	800078a <__aeabi_dmul+0x24a>
 8000756:	ea94 0f0c 	teq	r4, ip
 800075a:	d102      	bne.n	8000762 <__aeabi_dmul+0x222>
 800075c:	ea50 3601 	orrs.w	r6, r0, r1, lsl #12
 8000760:	d113      	bne.n	800078a <__aeabi_dmul+0x24a>
 8000762:	ea95 0f0c 	teq	r5, ip
 8000766:	d105      	bne.n	8000774 <__aeabi_dmul+0x234>
 8000768:	ea52 3603 	orrs.w	r6, r2, r3, lsl #12
 800076c:	bf1c      	itt	ne
 800076e:	4610      	movne	r0, r2
 8000770:	4619      	movne	r1, r3
 8000772:	d10a      	bne.n	800078a <__aeabi_dmul+0x24a>
 8000774:	ea81 0103 	eor.w	r1, r1, r3
 8000778:	f001 4100 	and.w	r1, r1, #2147483648	; 0x80000000
 800077c:	f041 41fe 	orr.w	r1, r1, #2130706432	; 0x7f000000
 8000780:	f441 0170 	orr.w	r1, r1, #15728640	; 0xf00000
 8000784:	f04f 0000 	mov.w	r0, #0
 8000788:	bd70      	pop	{r4, r5, r6, pc}
 800078a:	f041 41fe 	orr.w	r1, r1, #2130706432	; 0x7f000000
 800078e:	f441 0178 	orr.w	r1, r1, #16252928	; 0xf80000
 8000792:	bd70      	pop	{r4, r5, r6, pc}

08000794 <__aeabi_ddiv>:
 8000794:	b570      	push	{r4, r5, r6, lr}
 8000796:	f04f 0cff 	mov.w	ip, #255	; 0xff
 800079a:	f44c 6ce0 	orr.w	ip, ip, #1792	; 0x700
 800079e:	ea1c 5411 	ands.w	r4, ip, r1, lsr #20
 80007a2:	bf1d      	ittte	ne
 80007a4:	ea1c 5513 	andsne.w	r5, ip, r3, lsr #20
 80007a8:	ea94 0f0c 	teqne	r4, ip
 80007ac:	ea95 0f0c 	teqne	r5, ip
 80007b0:	f000 f8a7 	bleq	8000902 <__aeabi_ddiv+0x16e>
 80007b4:	eba4 0405 	sub.w	r4, r4, r5
 80007b8:	ea81 0e03 	eor.w	lr, r1, r3
 80007bc:	ea52 3503 	orrs.w	r5, r2, r3, lsl #12
 80007c0:	ea4f 3101 	mov.w	r1, r1, lsl #12
 80007c4:	f000 8088 	beq.w	80008d8 <__aeabi_ddiv+0x144>
 80007c8:	ea4f 3303 	mov.w	r3, r3, lsl #12
 80007cc:	f04f 5580 	mov.w	r5, #268435456	; 0x10000000
 80007d0:	ea45 1313 	orr.w	r3, r5, r3, lsr #4
 80007d4:	ea43 6312 	orr.w	r3, r3, r2, lsr #24
 80007d8:	ea4f 2202 	mov.w	r2, r2, lsl #8
 80007dc:	ea45 1511 	orr.w	r5, r5, r1, lsr #4
 80007e0:	ea45 6510 	orr.w	r5, r5, r0, lsr #24
 80007e4:	ea4f 2600 	mov.w	r6, r0, lsl #8
 80007e8:	f00e 4100 	and.w	r1, lr, #2147483648	; 0x80000000
 80007ec:	429d      	cmp	r5, r3
 80007ee:	bf08      	it	eq
 80007f0:	4296      	cmpeq	r6, r2
 80007f2:	f144 04fd 	adc.w	r4, r4, #253	; 0xfd
 80007f6:	f504 7440 	add.w	r4, r4, #768	; 0x300
 80007fa:	d202      	bcs.n	8000802 <__aeabi_ddiv+0x6e>
 80007fc:	085b      	lsrs	r3, r3, #1
 80007fe:	ea4f 0232 	mov.w	r2, r2, rrx
 8000802:	1ab6      	subs	r6, r6, r2
 8000804:	eb65 0503 	sbc.w	r5, r5, r3
 8000808:	085b      	lsrs	r3, r3, #1
 800080a:	ea4f 0232 	mov.w	r2, r2, rrx
 800080e:	f44f 1080 	mov.w	r0, #1048576	; 0x100000
 8000812:	f44f 2c00 	mov.w	ip, #524288	; 0x80000
 8000816:	ebb6 0e02 	subs.w	lr, r6, r2
 800081a:	eb75 0e03 	sbcs.w	lr, r5, r3
 800081e:	bf22      	ittt	cs
 8000820:	1ab6      	subcs	r6, r6, r2
 8000822:	4675      	movcs	r5, lr
 8000824:	ea40 000c 	orrcs.w	r0, r0, ip
 8000828:	085b      	lsrs	r3, r3, #1
 800082a:	ea4f 0232 	mov.w	r2, r2, rrx
 800082e:	ebb6 0e02 	subs.w	lr, r6, r2
 8000832:	eb75 0e03 	sbcs.w	lr, r5, r3
 8000836:	bf22      	ittt	cs
 8000838:	1ab6      	subcs	r6, r6, r2
 800083a:	4675      	movcs	r5, lr
 800083c:	ea40 005c 	orrcs.w	r0, r0, ip, lsr #1
 8000840:	085b      	lsrs	r3, r3, #1
 8000842:	ea4f 0232 	mov.w	r2, r2, rrx
 8000846:	ebb6 0e02 	subs.w	lr, r6, r2
 800084a:	eb75 0e03 	sbcs.w	lr, r5, r3
 800084e:	bf22      	ittt	cs
 8000850:	1ab6      	subcs	r6, r6, r2
 8000852:	4675      	movcs	r5, lr
 8000854:	ea40 009c 	orrcs.w	r0, r0, ip, lsr #2
 8000858:	085b      	lsrs	r3, r3, #1
 800085a:	ea4f 0232 	mov.w	r2, r2, rrx
 800085e:	ebb6 0e02 	subs.w	lr, r6, r2
 8000862:	eb75 0e03 	sbcs.w	lr, r5, r3
 8000866:	bf22      	ittt	cs
 8000868:	1ab6      	subcs	r6, r6, r2
 800086a:	4675      	movcs	r5, lr
 800086c:	ea40 00dc 	orrcs.w	r0, r0, ip, lsr #3
 8000870:	ea55 0e06 	orrs.w	lr, r5, r6
 8000874:	d018      	beq.n	80008a8 <__aeabi_ddiv+0x114>
 8000876:	ea4f 1505 	mov.w	r5, r5, lsl #4
 800087a:	ea45 7516 	orr.w	r5, r5, r6, lsr #28
 800087e:	ea4f 1606 	mov.w	r6, r6, lsl #4
 8000882:	ea4f 03c3 	mov.w	r3, r3, lsl #3
 8000886:	ea43 7352 	orr.w	r3, r3, r2, lsr #29
 800088a:	ea4f 02c2 	mov.w	r2, r2, lsl #3
 800088e:	ea5f 1c1c 	movs.w	ip, ip, lsr #4
 8000892:	d1c0      	bne.n	8000816 <__aeabi_ddiv+0x82>
 8000894:	f411 1f80 	tst.w	r1, #1048576	; 0x100000
 8000898:	d10b      	bne.n	80008b2 <__aeabi_ddiv+0x11e>
 800089a:	ea41 0100 	orr.w	r1, r1, r0
 800089e:	f04f 0000 	mov.w	r0, #0
 80008a2:	f04f 4c00 	mov.w	ip, #2147483648	; 0x80000000
 80008a6:	e7b6      	b.n	8000816 <__aeabi_ddiv+0x82>
 80008a8:	f411 1f80 	tst.w	r1, #1048576	; 0x100000
 80008ac:	bf04      	itt	eq
 80008ae:	4301      	orreq	r1, r0
 80008b0:	2000      	moveq	r0, #0
 80008b2:	f1b4 0cfd 	subs.w	ip, r4, #253	; 0xfd
 80008b6:	bf88      	it	hi
 80008b8:	f5bc 6fe0 	cmphi.w	ip, #1792	; 0x700
 80008bc:	f63f aeaf 	bhi.w	800061e <__aeabi_dmul+0xde>
 80008c0:	ebb5 0c03 	subs.w	ip, r5, r3
 80008c4:	bf04      	itt	eq
 80008c6:	ebb6 0c02 	subseq.w	ip, r6, r2
 80008ca:	ea5f 0c50 	movseq.w	ip, r0, lsr #1
 80008ce:	f150 0000 	adcs.w	r0, r0, #0
 80008d2:	eb41 5104 	adc.w	r1, r1, r4, lsl #20
 80008d6:	bd70      	pop	{r4, r5, r6, pc}
 80008d8:	f00e 4e00 	and.w	lr, lr, #2147483648	; 0x80000000
 80008dc:	ea4e 3111 	orr.w	r1, lr, r1, lsr #12
 80008e0:	eb14 045c 	adds.w	r4, r4, ip, lsr #1
 80008e4:	bfc2      	ittt	gt
 80008e6:	ebd4 050c 	rsbsgt	r5, r4, ip
 80008ea:	ea41 5104 	orrgt.w	r1, r1, r4, lsl #20
 80008ee:	bd70      	popgt	{r4, r5, r6, pc}
 80008f0:	f441 1180 	orr.w	r1, r1, #1048576	; 0x100000
 80008f4:	f04f 0e00 	mov.w	lr, #0
 80008f8:	3c01      	subs	r4, #1
 80008fa:	e690      	b.n	800061e <__aeabi_dmul+0xde>
 80008fc:	ea45 0e06 	orr.w	lr, r5, r6
 8000900:	e68d      	b.n	800061e <__aeabi_dmul+0xde>
 8000902:	ea0c 5513 	and.w	r5, ip, r3, lsr #20
 8000906:	ea94 0f0c 	teq	r4, ip
 800090a:	bf08      	it	eq
 800090c:	ea95 0f0c 	teqeq	r5, ip
 8000910:	f43f af3b 	beq.w	800078a <__aeabi_dmul+0x24a>
 8000914:	ea94 0f0c 	teq	r4, ip
 8000918:	d10a      	bne.n	8000930 <__aeabi_ddiv+0x19c>
 800091a:	ea50 3401 	orrs.w	r4, r0, r1, lsl #12
 800091e:	f47f af34 	bne.w	800078a <__aeabi_dmul+0x24a>
 8000922:	ea95 0f0c 	teq	r5, ip
 8000926:	f47f af25 	bne.w	8000774 <__aeabi_dmul+0x234>
 800092a:	4610      	mov	r0, r2
 800092c:	4619      	mov	r1, r3
 800092e:	e72c      	b.n	800078a <__aeabi_dmul+0x24a>
 8000930:	ea95 0f0c 	teq	r5, ip
 8000934:	d106      	bne.n	8000944 <__aeabi_ddiv+0x1b0>
 8000936:	ea52 3503 	orrs.w	r5, r2, r3, lsl #12
 800093a:	f43f aefd 	beq.w	8000738 <__aeabi_dmul+0x1f8>
 800093e:	4610      	mov	r0, r2
 8000940:	4619      	mov	r1, r3
 8000942:	e722      	b.n	800078a <__aeabi_dmul+0x24a>
 8000944:	ea50 0641 	orrs.w	r6, r0, r1, lsl #1
 8000948:	bf18      	it	ne
 800094a:	ea52 0643 	orrsne.w	r6, r2, r3, lsl #1
 800094e:	f47f aec5 	bne.w	80006dc <__aeabi_dmul+0x19c>
 8000952:	ea50 0441 	orrs.w	r4, r0, r1, lsl #1
 8000956:	f47f af0d 	bne.w	8000774 <__aeabi_dmul+0x234>
 800095a:	ea52 0543 	orrs.w	r5, r2, r3, lsl #1
 800095e:	f47f aeeb 	bne.w	8000738 <__aeabi_dmul+0x1f8>
 8000962:	e712      	b.n	800078a <__aeabi_dmul+0x24a>

08000964 <__gedf2>:
 8000964:	f04f 3cff 	mov.w	ip, #4294967295	; 0xffffffff
 8000968:	e006      	b.n	8000978 <__cmpdf2+0x4>
 800096a:	bf00      	nop

0800096c <__ledf2>:
 800096c:	f04f 0c01 	mov.w	ip, #1
 8000970:	e002      	b.n	8000978 <__cmpdf2+0x4>
 8000972:	bf00      	nop

08000974 <__cmpdf2>:
 8000974:	f04f 0c01 	mov.w	ip, #1
 8000978:	f84d cd04 	str.w	ip, [sp, #-4]!
 800097c:	ea4f 0c41 	mov.w	ip, r1, lsl #1
 8000980:	ea7f 5c6c 	mvns.w	ip, ip, asr #21
 8000984:	ea4f 0c43 	mov.w	ip, r3, lsl #1
 8000988:	bf18      	it	ne
 800098a:	ea7f 5c6c 	mvnsne.w	ip, ip, asr #21
 800098e:	d01b      	beq.n	80009c8 <__cmpdf2+0x54>
 8000990:	b001      	add	sp, #4
 8000992:	ea50 0c41 	orrs.w	ip, r0, r1, lsl #1
 8000996:	bf0c      	ite	eq
 8000998:	ea52 0c43 	orrseq.w	ip, r2, r3, lsl #1
 800099c:	ea91 0f03 	teqne	r1, r3
 80009a0:	bf02      	ittt	eq
 80009a2:	ea90 0f02 	teqeq	r0, r2
 80009a6:	2000      	moveq	r0, #0
 80009a8:	4770      	bxeq	lr
 80009aa:	f110 0f00 	cmn.w	r0, #0
 80009ae:	ea91 0f03 	teq	r1, r3
 80009b2:	bf58      	it	pl
 80009b4:	4299      	cmppl	r1, r3
 80009b6:	bf08      	it	eq
 80009b8:	4290      	cmpeq	r0, r2
 80009ba:	bf2c      	ite	cs
 80009bc:	17d8      	asrcs	r0, r3, #31
 80009be:	ea6f 70e3 	mvncc.w	r0, r3, asr #31
 80009c2:	f040 0001 	orr.w	r0, r0, #1
 80009c6:	4770      	bx	lr
 80009c8:	ea4f 0c41 	mov.w	ip, r1, lsl #1
 80009cc:	ea7f 5c6c 	mvns.w	ip, ip, asr #21
 80009d0:	d102      	bne.n	80009d8 <__cmpdf2+0x64>
 80009d2:	ea50 3c01 	orrs.w	ip, r0, r1, lsl #12
 80009d6:	d107      	bne.n	80009e8 <__cmpdf2+0x74>
 80009d8:	ea4f 0c43 	mov.w	ip, r3, lsl #1
 80009dc:	ea7f 5c6c 	mvns.w	ip, ip, asr #21
 80009e0:	d1d6      	bne.n	8000990 <__cmpdf2+0x1c>
 80009e2:	ea52 3c03 	orrs.w	ip, r2, r3, lsl #12
 80009e6:	d0d3      	beq.n	8000990 <__cmpdf2+0x1c>
 80009e8:	f85d 0b04 	ldr.w	r0, [sp], #4
 80009ec:	4770      	bx	lr
 80009ee:	bf00      	nop

080009f0 <__aeabi_cdrcmple>:
 80009f0:	4684      	mov	ip, r0
 80009f2:	4610      	mov	r0, r2
 80009f4:	4662      	mov	r2, ip
 80009f6:	468c      	mov	ip, r1
 80009f8:	4619      	mov	r1, r3
 80009fa:	4663      	mov	r3, ip
 80009fc:	e000      	b.n	8000a00 <__aeabi_cdcmpeq>
 80009fe:	bf00      	nop

08000a00 <__aeabi_cdcmpeq>:
 8000a00:	b501      	push	{r0, lr}
 8000a02:	f7ff ffb7 	bl	8000974 <__cmpdf2>
 8000a06:	2800      	cmp	r0, #0
 8000a08:	bf48      	it	mi
 8000a0a:	f110 0f00 	cmnmi.w	r0, #0
 8000a0e:	bd01      	pop	{r0, pc}

08000a10 <__aeabi_dcmpeq>:
 8000a10:	f84d ed08 	str.w	lr, [sp, #-8]!
 8000a14:	f7ff fff4 	bl	8000a00 <__aeabi_cdcmpeq>
 8000a18:	bf0c      	ite	eq
 8000a1a:	2001      	moveq	r0, #1
 8000a1c:	2000      	movne	r0, #0
 8000a1e:	f85d fb08 	ldr.w	pc, [sp], #8
 8000a22:	bf00      	nop

08000a24 <__aeabi_dcmplt>:
 8000a24:	f84d ed08 	str.w	lr, [sp, #-8]!
 8000a28:	f7ff ffea 	bl	8000a00 <__aeabi_cdcmpeq>
 8000a2c:	bf34      	ite	cc
 8000a2e:	2001      	movcc	r0, #1
 8000a30:	2000      	movcs	r0, #0
 8000a32:	f85d fb08 	ldr.w	pc, [sp], #8
 8000a36:	bf00      	nop

08000a38 <__aeabi_dcmple>:
 8000a38:	f84d ed08 	str.w	lr, [sp, #-8]!
 8000a3c:	f7ff ffe0 	bl	8000a00 <__aeabi_cdcmpeq>
 8000a40:	bf94      	ite	ls
 8000a42:	2001      	movls	r0, #1
 8000a44:	2000      	movhi	r0, #0
 8000a46:	f85d fb08 	ldr.w	pc, [sp], #8
 8000a4a:	bf00      	nop

08000a4c <__aeabi_dcmpge>:
 8000a4c:	f84d ed08 	str.w	lr, [sp, #-8]!
 8000a50:	f7ff ffce 	bl	80009f0 <__aeabi_cdrcmple>
 8000a54:	bf94      	ite	ls
 8000a56:	2001      	movls	r0, #1
 8000a58:	2000      	movhi	r0, #0
 8000a5a:	f85d fb08 	ldr.w	pc, [sp], #8
 8000a5e:	bf00      	nop

08000a60 <__aeabi_dcmpgt>:
 8000a60:	f84d ed08 	str.w	lr, [sp, #-8]!
 8000a64:	f7ff ffc4 	bl	80009f0 <__aeabi_cdrcmple>
 8000a68:	bf34      	ite	cc
 8000a6a:	2001      	movcc	r0, #1
 8000a6c:	2000      	movcs	r0, #0
 8000a6e:	f85d fb08 	ldr.w	pc, [sp], #8
 8000a72:	bf00      	nop

08000a74 <__aeabi_dcmpun>:
 8000a74:	ea4f 0c41 	mov.w	ip, r1, lsl #1
 8000a78:	ea7f 5c6c 	mvns.w	ip, ip, asr #21
 8000a7c:	d102      	bne.n	8000a84 <__aeabi_dcmpun+0x10>
 8000a7e:	ea50 3c01 	orrs.w	ip, r0, r1, lsl #12
 8000a82:	d10a      	bne.n	8000a9a <__aeabi_dcmpun+0x26>
 8000a84:	ea4f 0c43 	mov.w	ip, r3, lsl #1
 8000a88:	ea7f 5c6c 	mvns.w	ip, ip, asr #21
 8000a8c:	d102      	bne.n	8000a94 <__aeabi_dcmpun+0x20>
 8000a8e:	ea52 3c03 	orrs.w	ip, r2, r3, lsl #12
 8000a92:	d102      	bne.n	8000a9a <__aeabi_dcmpun+0x26>
 8000a94:	f04f 0000 	mov.w	r0, #0
 8000a98:	4770      	bx	lr
 8000a9a:	f04f 0001 	mov.w	r0, #1
 8000a9e:	4770      	bx	lr

08000aa0 <__aeabi_d2iz>:
 8000aa0:	ea4f 0241 	mov.w	r2, r1, lsl #1
 8000aa4:	f512 1200 	adds.w	r2, r2, #2097152	; 0x200000
 8000aa8:	d215      	bcs.n	8000ad6 <__aeabi_d2iz+0x36>
 8000aaa:	d511      	bpl.n	8000ad0 <__aeabi_d2iz+0x30>
 8000aac:	f46f 7378 	mvn.w	r3, #992	; 0x3e0
 8000ab0:	ebb3 5262 	subs.w	r2, r3, r2, asr #21
 8000ab4:	d912      	bls.n	8000adc <__aeabi_d2iz+0x3c>
 8000ab6:	ea4f 23c1 	mov.w	r3, r1, lsl #11
 8000aba:	f043 4300 	orr.w	r3, r3, #2147483648	; 0x80000000
 8000abe:	ea43 5350 	orr.w	r3, r3, r0, lsr #21
 8000ac2:	f011 4f00 	tst.w	r1, #2147483648	; 0x80000000
 8000ac6:	fa23 f002 	lsr.w	r0, r3, r2
 8000aca:	bf18      	it	ne
 8000acc:	4240      	negne	r0, r0
 8000ace:	4770      	bx	lr
 8000ad0:	f04f 0000 	mov.w	r0, #0
 8000ad4:	4770      	bx	lr
 8000ad6:	ea50 3001 	orrs.w	r0, r0, r1, lsl #12
 8000ada:	d105      	bne.n	8000ae8 <__aeabi_d2iz+0x48>
 8000adc:	f011 4000 	ands.w	r0, r1, #2147483648	; 0x80000000
 8000ae0:	bf08      	it	eq
 8000ae2:	f06f 4000 	mvneq.w	r0, #2147483648	; 0x80000000
 8000ae6:	4770      	bx	lr
 8000ae8:	f04f 0000 	mov.w	r0, #0
 8000aec:	4770      	bx	lr
 8000aee:	bf00      	nop

08000af0 <display>:
 8000af0:	e92d 41f0 	stmdb	sp!, {r4, r5, r6, r7, r8, lr}
 8000af4:	ed2d 8b02 	vpush	{d8}
 8000af8:	ed9f 8b15 	vldr	d8, [pc, #84]	; 8000b50 <display+0x60>
 8000afc:	4e16      	ldr	r6, [pc, #88]	; (8000b58 <display+0x68>)
 8000afe:	f8df 805c 	ldr.w	r8, [pc, #92]	; 8000b5c <display+0x6c>
 8000b02:	4607      	mov	r7, r0
 8000b04:	460c      	mov	r4, r1
 8000b06:	2501      	movs	r5, #1
 8000b08:	1e6b      	subs	r3, r5, #1
 8000b0a:	429c      	cmp	r4, r3
 8000b0c:	eba4 0005 	sub.w	r0, r4, r5
 8000b10:	dc03      	bgt.n	8000b1a <display+0x2a>
 8000b12:	ecbd 8b02 	vpop	{d8}
 8000b16:	e8bd 81f0 	ldmia.w	sp!, {r4, r5, r6, r7, r8, pc}
 8000b1a:	f7ff fca7 	bl	800046c <__aeabi_i2d>
 8000b1e:	eeb0 0a48 	vmov.f32	s0, s16
 8000b22:	eef0 0a68 	vmov.f32	s1, s17
 8000b26:	ec41 0b11 	vmov	d1, r0, r1
 8000b2a:	f000 fead 	bl	8001888 <pow>
 8000b2e:	ec51 0b10 	vmov	r0, r1, d0
 8000b32:	f7ff ffb5 	bl	8000aa0 <__aeabi_d2iz>
 8000b36:	ea10 0207 	ands.w	r2, r0, r7
 8000b3a:	8831      	ldrh	r1, [r6, #0]
 8000b3c:	bf18      	it	ne
 8000b3e:	2201      	movne	r2, #1
 8000b40:	4640      	mov	r0, r8
 8000b42:	f000 fa81 	bl	8001048 <HAL_GPIO_WritePin>
 8000b46:	3501      	adds	r5, #1
 8000b48:	3604      	adds	r6, #4
 8000b4a:	e7dd      	b.n	8000b08 <display+0x18>
 8000b4c:	f3af 8000 	nop.w
 8000b50:	00000000 	.word	0x00000000
 8000b54:	40000000 	.word	0x40000000
 8000b58:	20000000 	.word	0x20000000
 8000b5c:	48000800 	.word	0x48000800

08000b60 <SystemClock_Config>:
 8000b60:	b500      	push	{lr}
 8000b62:	b097      	sub	sp, #92	; 0x5c
 8000b64:	2244      	movs	r2, #68	; 0x44
 8000b66:	2100      	movs	r1, #0
 8000b68:	a805      	add	r0, sp, #20
 8000b6a:	f000 fe85 	bl	8001878 <memset>
 8000b6e:	2214      	movs	r2, #20
 8000b70:	2100      	movs	r1, #0
 8000b72:	4668      	mov	r0, sp
 8000b74:	f000 fe80 	bl	8001878 <memset>
 8000b78:	f44f 7000 	mov.w	r0, #512	; 0x200
 8000b7c:	f000 fa72 	bl	8001064 <HAL_PWREx_ControlVoltageScaling>
 8000b80:	b108      	cbz	r0, 8000b86 <SystemClock_Config+0x26>
 8000b82:	b672      	cpsid	i
 8000b84:	e7fe      	b.n	8000b84 <SystemClock_Config+0x24>
 8000b86:	2210      	movs	r2, #16
 8000b88:	f44f 7180 	mov.w	r1, #256	; 0x100
 8000b8c:	2001      	movs	r0, #1
 8000b8e:	e9cd 1208 	strd	r1, r2, [sp, #32]
 8000b92:	220a      	movs	r2, #10
 8000b94:	2302      	movs	r3, #2
 8000b96:	e9cd 0211 	strd	r0, r2, [sp, #68]	; 0x44
 8000b9a:	2207      	movs	r2, #7
 8000b9c:	a805      	add	r0, sp, #20
 8000b9e:	e9cd 330f 	strd	r3, r3, [sp, #60]	; 0x3c
 8000ba2:	e9cd 2313 	strd	r2, r3, [sp, #76]	; 0x4c
 8000ba6:	9305      	str	r3, [sp, #20]
 8000ba8:	9315      	str	r3, [sp, #84]	; 0x54
 8000baa:	f000 fb21 	bl	80011f0 <HAL_RCC_OscConfig>
 8000bae:	b108      	cbz	r0, 8000bb4 <SystemClock_Config+0x54>
 8000bb0:	b672      	cpsid	i
 8000bb2:	e7fe      	b.n	8000bb2 <SystemClock_Config+0x52>
 8000bb4:	e9cd 0002 	strd	r0, r0, [sp, #8]
 8000bb8:	220f      	movs	r2, #15
 8000bba:	2303      	movs	r3, #3
 8000bbc:	9004      	str	r0, [sp, #16]
 8000bbe:	2104      	movs	r1, #4
 8000bc0:	4668      	mov	r0, sp
 8000bc2:	e9cd 2300 	strd	r2, r3, [sp]
 8000bc6:	f000 fd99 	bl	80016fc <HAL_RCC_ClockConfig>
 8000bca:	b108      	cbz	r0, 8000bd0 <SystemClock_Config+0x70>
 8000bcc:	b672      	cpsid	i
 8000bce:	e7fe      	b.n	8000bce <SystemClock_Config+0x6e>
 8000bd0:	b017      	add	sp, #92	; 0x5c
 8000bd2:	f85d fb04 	ldr.w	pc, [sp], #4
	...

08000bd8 <main>:
 8000bd8:	b510      	push	{r4, lr}
 8000bda:	b086      	sub	sp, #24
 8000bdc:	f000 f8c6 	bl	8000d6c <HAL_Init>
 8000be0:	f7ff ffbe 	bl	8000b60 <SystemClock_Config>
 8000be4:	2214      	movs	r2, #20
 8000be6:	2100      	movs	r1, #0
 8000be8:	a801      	add	r0, sp, #4
 8000bea:	f000 fe45 	bl	8001878 <memset>
 8000bee:	4b13      	ldr	r3, [pc, #76]	; (8000c3c <main+0x64>)
 8000bf0:	4813      	ldr	r0, [pc, #76]	; (8000c40 <main+0x68>)
 8000bf2:	6cda      	ldr	r2, [r3, #76]	; 0x4c
 8000bf4:	f042 0204 	orr.w	r2, r2, #4
 8000bf8:	64da      	str	r2, [r3, #76]	; 0x4c
 8000bfa:	6cdb      	ldr	r3, [r3, #76]	; 0x4c
 8000bfc:	f003 0304 	and.w	r3, r3, #4
 8000c00:	9300      	str	r3, [sp, #0]
 8000c02:	2200      	movs	r2, #0
 8000c04:	21ff      	movs	r1, #255	; 0xff
 8000c06:	9b00      	ldr	r3, [sp, #0]
 8000c08:	2400      	movs	r4, #0
 8000c0a:	f000 fa1d 	bl	8001048 <HAL_GPIO_WritePin>
 8000c0e:	22ff      	movs	r2, #255	; 0xff
 8000c10:	2301      	movs	r3, #1
 8000c12:	480b      	ldr	r0, [pc, #44]	; (8000c40 <main+0x68>)
 8000c14:	a901      	add	r1, sp, #4
 8000c16:	e9cd 2301 	strd	r2, r3, [sp, #4]
 8000c1a:	e9cd 4403 	strd	r4, r4, [sp, #12]
 8000c1e:	f000 f935 	bl	8000e8c <HAL_GPIO_Init>
 8000c22:	4620      	mov	r0, r4
 8000c24:	2108      	movs	r1, #8
 8000c26:	f7ff ff63 	bl	8000af0 <display>
 8000c2a:	2cff      	cmp	r4, #255	; 0xff
 8000c2c:	f44f 707a 	mov.w	r0, #1000	; 0x3e8
 8000c30:	bf14      	ite	ne
 8000c32:	3401      	addne	r4, #1
 8000c34:	2400      	moveq	r4, #0
 8000c36:	f000 f8bb 	bl	8000db0 <HAL_Delay>
 8000c3a:	e7f2      	b.n	8000c22 <main+0x4a>
 8000c3c:	40021000 	.word	0x40021000
 8000c40:	48000800 	.word	0x48000800

08000c44 <HAL_MspInit>:
 8000c44:	4b0a      	ldr	r3, [pc, #40]	; (8000c70 <HAL_MspInit+0x2c>)
 8000c46:	6e1a      	ldr	r2, [r3, #96]	; 0x60
 8000c48:	f042 0201 	orr.w	r2, r2, #1
 8000c4c:	661a      	str	r2, [r3, #96]	; 0x60
 8000c4e:	6e1a      	ldr	r2, [r3, #96]	; 0x60
 8000c50:	b082      	sub	sp, #8
 8000c52:	f002 0201 	and.w	r2, r2, #1
 8000c56:	9200      	str	r2, [sp, #0]
 8000c58:	9a00      	ldr	r2, [sp, #0]
 8000c5a:	6d9a      	ldr	r2, [r3, #88]	; 0x58
 8000c5c:	f042 5280 	orr.w	r2, r2, #268435456	; 0x10000000
 8000c60:	659a      	str	r2, [r3, #88]	; 0x58
 8000c62:	6d9b      	ldr	r3, [r3, #88]	; 0x58
 8000c64:	f003 5380 	and.w	r3, r3, #268435456	; 0x10000000
 8000c68:	9301      	str	r3, [sp, #4]
 8000c6a:	9b01      	ldr	r3, [sp, #4]
 8000c6c:	b002      	add	sp, #8
 8000c6e:	4770      	bx	lr
 8000c70:	40021000 	.word	0x40021000

08000c74 <NMI_Handler>:
 8000c74:	e7fe      	b.n	8000c74 <NMI_Handler>

08000c76 <HardFault_Handler>:
 8000c76:	e7fe      	b.n	8000c76 <HardFault_Handler>

08000c78 <MemManage_Handler>:
 8000c78:	e7fe      	b.n	8000c78 <MemManage_Handler>

08000c7a <BusFault_Handler>:
 8000c7a:	e7fe      	b.n	8000c7a <BusFault_Handler>

08000c7c <UsageFault_Handler>:
 8000c7c:	e7fe      	b.n	8000c7c <UsageFault_Handler>

08000c7e <SVC_Handler>:
 8000c7e:	4770      	bx	lr

08000c80 <DebugMon_Handler>:
 8000c80:	4770      	bx	lr

08000c82 <PendSV_Handler>:
 8000c82:	4770      	bx	lr

08000c84 <SysTick_Handler>:
 8000c84:	f000 b882 	b.w	8000d8c <HAL_IncTick>

08000c88 <SystemInit>:
 8000c88:	4a0e      	ldr	r2, [pc, #56]	; (8000cc4 <SystemInit+0x3c>)
 8000c8a:	f8d2 3088 	ldr.w	r3, [r2, #136]	; 0x88
 8000c8e:	f443 0370 	orr.w	r3, r3, #15728640	; 0xf00000
 8000c92:	f8c2 3088 	str.w	r3, [r2, #136]	; 0x88
 8000c96:	4b0c      	ldr	r3, [pc, #48]	; (8000cc8 <SystemInit+0x40>)
 8000c98:	681a      	ldr	r2, [r3, #0]
 8000c9a:	2100      	movs	r1, #0
 8000c9c:	f042 0201 	orr.w	r2, r2, #1
 8000ca0:	601a      	str	r2, [r3, #0]
 8000ca2:	6099      	str	r1, [r3, #8]
 8000ca4:	681a      	ldr	r2, [r3, #0]
 8000ca6:	f022 52a8 	bic.w	r2, r2, #352321536	; 0x15000000
 8000caa:	f422 2210 	bic.w	r2, r2, #589824	; 0x90000
 8000cae:	601a      	str	r2, [r3, #0]
 8000cb0:	f44f 5280 	mov.w	r2, #4096	; 0x1000
 8000cb4:	60da      	str	r2, [r3, #12]
 8000cb6:	681a      	ldr	r2, [r3, #0]
 8000cb8:	f422 2280 	bic.w	r2, r2, #262144	; 0x40000
 8000cbc:	601a      	str	r2, [r3, #0]
 8000cbe:	6199      	str	r1, [r3, #24]
 8000cc0:	4770      	bx	lr
 8000cc2:	bf00      	nop
 8000cc4:	e000ed00 	.word	0xe000ed00
 8000cc8:	40021000 	.word	0x40021000

08000ccc <Reset_Handler>:
 8000ccc:	f8df d034 	ldr.w	sp, [pc, #52]	; 8000d04 <LoopForever+0x2>
 8000cd0:	f7ff ffda 	bl	8000c88 <SystemInit>
 8000cd4:	2100      	movs	r1, #0
 8000cd6:	e003      	b.n	8000ce0 <LoopCopyDataInit>

08000cd8 <CopyDataInit>:
 8000cd8:	4b0b      	ldr	r3, [pc, #44]	; (8000d08 <LoopForever+0x6>)
 8000cda:	585b      	ldr	r3, [r3, r1]
 8000cdc:	5043      	str	r3, [r0, r1]
 8000cde:	3104      	adds	r1, #4

08000ce0 <LoopCopyDataInit>:
 8000ce0:	480a      	ldr	r0, [pc, #40]	; (8000d0c <LoopForever+0xa>)
 8000ce2:	4b0b      	ldr	r3, [pc, #44]	; (8000d10 <LoopForever+0xe>)
 8000ce4:	1842      	adds	r2, r0, r1
 8000ce6:	429a      	cmp	r2, r3
 8000ce8:	d3f6      	bcc.n	8000cd8 <CopyDataInit>
 8000cea:	4a0a      	ldr	r2, [pc, #40]	; (8000d14 <LoopForever+0x12>)
 8000cec:	e002      	b.n	8000cf4 <LoopFillZerobss>

08000cee <FillZerobss>:
 8000cee:	2300      	movs	r3, #0
 8000cf0:	f842 3b04 	str.w	r3, [r2], #4

08000cf4 <LoopFillZerobss>:
 8000cf4:	4b08      	ldr	r3, [pc, #32]	; (8000d18 <LoopForever+0x16>)
 8000cf6:	429a      	cmp	r2, r3
 8000cf8:	d3f9      	bcc.n	8000cee <FillZerobss>
 8000cfa:	f000 fd99 	bl	8001830 <__libc_init_array>
 8000cfe:	f7ff ff6b 	bl	8000bd8 <main>

08000d02 <LoopForever>:
 8000d02:	e7fe      	b.n	8000d02 <LoopForever>
 8000d04:	20018000 	.word	0x20018000
 8000d08:	080028a0 	.word	0x080028a0
 8000d0c:	20000000 	.word	0x20000000
 8000d10:	20000094 	.word	0x20000094
 8000d14:	20000094 	.word	0x20000094
 8000d18:	200000b4 	.word	0x200000b4

08000d1c <ADC1_2_IRQHandler>:
 8000d1c:	e7fe      	b.n	8000d1c <ADC1_2_IRQHandler>
	...

08000d20 <HAL_InitTick>:
 8000d20:	b538      	push	{r3, r4, r5, lr}
 8000d22:	4b0f      	ldr	r3, [pc, #60]	; (8000d60 <HAL_InitTick+0x40>)
 8000d24:	4605      	mov	r5, r0
 8000d26:	7818      	ldrb	r0, [r3, #0]
 8000d28:	b908      	cbnz	r0, 8000d2e <HAL_InitTick+0xe>
 8000d2a:	2001      	movs	r0, #1
 8000d2c:	bd38      	pop	{r3, r4, r5, pc}
 8000d2e:	4a0d      	ldr	r2, [pc, #52]	; (8000d64 <HAL_InitTick+0x44>)
 8000d30:	f44f 737a 	mov.w	r3, #1000	; 0x3e8
 8000d34:	fbb3 f3f0 	udiv	r3, r3, r0
 8000d38:	6810      	ldr	r0, [r2, #0]
 8000d3a:	fbb0 f0f3 	udiv	r0, r0, r3
 8000d3e:	f000 f88f 	bl	8000e60 <HAL_SYSTICK_Config>
 8000d42:	4604      	mov	r4, r0
 8000d44:	2800      	cmp	r0, #0
 8000d46:	d1f0      	bne.n	8000d2a <HAL_InitTick+0xa>
 8000d48:	2d0f      	cmp	r5, #15
 8000d4a:	d8ee      	bhi.n	8000d2a <HAL_InitTick+0xa>
 8000d4c:	4602      	mov	r2, r0
 8000d4e:	4629      	mov	r1, r5
 8000d50:	f04f 30ff 	mov.w	r0, #4294967295	; 0xffffffff
 8000d54:	f000 f852 	bl	8000dfc <HAL_NVIC_SetPriority>
 8000d58:	4b03      	ldr	r3, [pc, #12]	; (8000d68 <HAL_InitTick+0x48>)
 8000d5a:	4620      	mov	r0, r4
 8000d5c:	601d      	str	r5, [r3, #0]
 8000d5e:	e7e5      	b.n	8000d2c <HAL_InitTick+0xc>
 8000d60:	20000024 	.word	0x20000024
 8000d64:	20000020 	.word	0x20000020
 8000d68:	20000028 	.word	0x20000028

08000d6c <HAL_Init>:
 8000d6c:	b510      	push	{r4, lr}
 8000d6e:	2003      	movs	r0, #3
 8000d70:	f000 f832 	bl	8000dd8 <HAL_NVIC_SetPriorityGrouping>
 8000d74:	200f      	movs	r0, #15
 8000d76:	f7ff ffd3 	bl	8000d20 <HAL_InitTick>
 8000d7a:	4604      	mov	r4, r0
 8000d7c:	b918      	cbnz	r0, 8000d86 <HAL_Init+0x1a>
 8000d7e:	f7ff ff61 	bl	8000c44 <HAL_MspInit>
 8000d82:	4620      	mov	r0, r4
 8000d84:	bd10      	pop	{r4, pc}
 8000d86:	2401      	movs	r4, #1
 8000d88:	e7fb      	b.n	8000d82 <HAL_Init+0x16>
	...

08000d8c <HAL_IncTick>:
 8000d8c:	4a03      	ldr	r2, [pc, #12]	; (8000d9c <HAL_IncTick+0x10>)
 8000d8e:	4b04      	ldr	r3, [pc, #16]	; (8000da0 <HAL_IncTick+0x14>)
 8000d90:	6811      	ldr	r1, [r2, #0]
 8000d92:	781b      	ldrb	r3, [r3, #0]
 8000d94:	440b      	add	r3, r1
 8000d96:	6013      	str	r3, [r2, #0]
 8000d98:	4770      	bx	lr
 8000d9a:	bf00      	nop
 8000d9c:	200000b0 	.word	0x200000b0
 8000da0:	20000024 	.word	0x20000024

08000da4 <HAL_GetTick>:
 8000da4:	4b01      	ldr	r3, [pc, #4]	; (8000dac <HAL_GetTick+0x8>)
 8000da6:	6818      	ldr	r0, [r3, #0]
 8000da8:	4770      	bx	lr
 8000daa:	bf00      	nop
 8000dac:	200000b0 	.word	0x200000b0

08000db0 <HAL_Delay>:
 8000db0:	b538      	push	{r3, r4, r5, lr}
 8000db2:	4604      	mov	r4, r0
 8000db4:	f7ff fff6 	bl	8000da4 <HAL_GetTick>
 8000db8:	1c63      	adds	r3, r4, #1
 8000dba:	bf1c      	itt	ne
 8000dbc:	4b05      	ldrne	r3, [pc, #20]	; (8000dd4 <HAL_Delay+0x24>)
 8000dbe:	781b      	ldrbne	r3, [r3, #0]
 8000dc0:	4605      	mov	r5, r0
 8000dc2:	bf18      	it	ne
 8000dc4:	18e4      	addne	r4, r4, r3
 8000dc6:	f7ff ffed 	bl	8000da4 <HAL_GetTick>
 8000dca:	1b43      	subs	r3, r0, r5
 8000dcc:	42a3      	cmp	r3, r4
 8000dce:	d3fa      	bcc.n	8000dc6 <HAL_Delay+0x16>
 8000dd0:	bd38      	pop	{r3, r4, r5, pc}
 8000dd2:	bf00      	nop
 8000dd4:	20000024 	.word	0x20000024

08000dd8 <HAL_NVIC_SetPriorityGrouping>:
 8000dd8:	4907      	ldr	r1, [pc, #28]	; (8000df8 <HAL_NVIC_SetPriorityGrouping+0x20>)
 8000dda:	68ca      	ldr	r2, [r1, #12]
 8000ddc:	f422 62e0 	bic.w	r2, r2, #1792	; 0x700
 8000de0:	0203      	lsls	r3, r0, #8
 8000de2:	0412      	lsls	r2, r2, #16
 8000de4:	f403 63e0 	and.w	r3, r3, #1792	; 0x700
 8000de8:	0c12      	lsrs	r2, r2, #16
 8000dea:	4313      	orrs	r3, r2
 8000dec:	f043 63bf 	orr.w	r3, r3, #100139008	; 0x5f80000
 8000df0:	f443 3300 	orr.w	r3, r3, #131072	; 0x20000
 8000df4:	60cb      	str	r3, [r1, #12]
 8000df6:	4770      	bx	lr
 8000df8:	e000ed00 	.word	0xe000ed00

08000dfc <HAL_NVIC_SetPriority>:
 8000dfc:	4b16      	ldr	r3, [pc, #88]	; (8000e58 <HAL_NVIC_SetPriority+0x5c>)
 8000dfe:	b530      	push	{r4, r5, lr}
 8000e00:	68dc      	ldr	r4, [r3, #12]
 8000e02:	f3c4 2402 	ubfx	r4, r4, #8, #3
 8000e06:	f1c4 0507 	rsb	r5, r4, #7
 8000e0a:	1d23      	adds	r3, r4, #4
 8000e0c:	2d04      	cmp	r5, #4
 8000e0e:	bf28      	it	cs
 8000e10:	2504      	movcs	r5, #4
 8000e12:	2b06      	cmp	r3, #6
 8000e14:	f04f 33ff 	mov.w	r3, #4294967295	; 0xffffffff
 8000e18:	bf8c      	ite	hi
 8000e1a:	3c03      	subhi	r4, #3
 8000e1c:	2400      	movls	r4, #0
 8000e1e:	fa03 f505 	lsl.w	r5, r3, r5
 8000e22:	ea21 0105 	bic.w	r1, r1, r5
 8000e26:	40a3      	lsls	r3, r4
 8000e28:	ea22 0203 	bic.w	r2, r2, r3
 8000e2c:	40a1      	lsls	r1, r4
 8000e2e:	2800      	cmp	r0, #0
 8000e30:	ea41 0302 	orr.w	r3, r1, r2
 8000e34:	bfac      	ite	ge
 8000e36:	f100 4060 	addge.w	r0, r0, #3758096384	; 0xe0000000
 8000e3a:	4a08      	ldrlt	r2, [pc, #32]	; (8000e5c <HAL_NVIC_SetPriority+0x60>)
 8000e3c:	ea4f 1303 	mov.w	r3, r3, lsl #4
 8000e40:	bfb8      	it	lt
 8000e42:	f000 000f 	andlt.w	r0, r0, #15
 8000e46:	b2db      	uxtb	r3, r3
 8000e48:	bfaa      	itet	ge
 8000e4a:	f500 4061 	addge.w	r0, r0, #57600	; 0xe100
 8000e4e:	5413      	strblt	r3, [r2, r0]
 8000e50:	f880 3300 	strbge.w	r3, [r0, #768]	; 0x300
 8000e54:	bd30      	pop	{r4, r5, pc}
 8000e56:	bf00      	nop
 8000e58:	e000ed00 	.word	0xe000ed00
 8000e5c:	e000ed14 	.word	0xe000ed14

08000e60 <HAL_SYSTICK_Config>:
 8000e60:	3801      	subs	r0, #1
 8000e62:	f1b0 7f80 	cmp.w	r0, #16777216	; 0x1000000
 8000e66:	d20a      	bcs.n	8000e7e <HAL_SYSTICK_Config+0x1e>
 8000e68:	4b06      	ldr	r3, [pc, #24]	; (8000e84 <HAL_SYSTICK_Config+0x24>)
 8000e6a:	4a07      	ldr	r2, [pc, #28]	; (8000e88 <HAL_SYSTICK_Config+0x28>)
 8000e6c:	6058      	str	r0, [r3, #4]
 8000e6e:	21f0      	movs	r1, #240	; 0xf0
 8000e70:	f882 1023 	strb.w	r1, [r2, #35]	; 0x23
 8000e74:	2000      	movs	r0, #0
 8000e76:	2207      	movs	r2, #7
 8000e78:	6098      	str	r0, [r3, #8]
 8000e7a:	601a      	str	r2, [r3, #0]
 8000e7c:	4770      	bx	lr
 8000e7e:	2001      	movs	r0, #1
 8000e80:	4770      	bx	lr
 8000e82:	bf00      	nop
 8000e84:	e000e010 	.word	0xe000e010
 8000e88:	e000ed00 	.word	0xe000ed00

08000e8c <HAL_GPIO_Init>:
 8000e8c:	e92d 4ff7 	stmdb	sp!, {r0, r1, r2, r4, r5, r6, r7, r8, r9, sl, fp, lr}
 8000e90:	f8df 91b0 	ldr.w	r9, [pc, #432]	; 8001044 <HAL_GPIO_Init+0x1b8>
 8000e94:	4d69      	ldr	r5, [pc, #420]	; (800103c <HAL_GPIO_Init+0x1b0>)
 8000e96:	2300      	movs	r3, #0
 8000e98:	680a      	ldr	r2, [r1, #0]
 8000e9a:	fa32 f403 	lsrs.w	r4, r2, r3
 8000e9e:	d102      	bne.n	8000ea6 <HAL_GPIO_Init+0x1a>
 8000ea0:	b003      	add	sp, #12
 8000ea2:	e8bd 8ff0 	ldmia.w	sp!, {r4, r5, r6, r7, r8, r9, sl, fp, pc}
 8000ea6:	f04f 0a01 	mov.w	sl, #1
 8000eaa:	fa0a fa03 	lsl.w	sl, sl, r3
 8000eae:	ea1a 0202 	ands.w	r2, sl, r2
 8000eb2:	f000 80b4 	beq.w	800101e <HAL_GPIO_Init+0x192>
 8000eb6:	684c      	ldr	r4, [r1, #4]
 8000eb8:	f024 0e10 	bic.w	lr, r4, #16
 8000ebc:	ea4f 0843 	mov.w	r8, r3, lsl #1
 8000ec0:	2603      	movs	r6, #3
 8000ec2:	f10e 37ff 	add.w	r7, lr, #4294967295	; 0xffffffff
 8000ec6:	fa06 f608 	lsl.w	r6, r6, r8
 8000eca:	2f01      	cmp	r7, #1
 8000ecc:	ea6f 0606 	mvn.w	r6, r6
 8000ed0:	d811      	bhi.n	8000ef6 <HAL_GPIO_Init+0x6a>
 8000ed2:	6887      	ldr	r7, [r0, #8]
 8000ed4:	ea07 0c06 	and.w	ip, r7, r6
 8000ed8:	68cf      	ldr	r7, [r1, #12]
 8000eda:	fa07 f708 	lsl.w	r7, r7, r8
 8000ede:	ea47 070c 	orr.w	r7, r7, ip
 8000ee2:	6087      	str	r7, [r0, #8]
 8000ee4:	6847      	ldr	r7, [r0, #4]
 8000ee6:	ea27 0c0a 	bic.w	ip, r7, sl
 8000eea:	f3c4 1700 	ubfx	r7, r4, #4, #1
 8000eee:	409f      	lsls	r7, r3
 8000ef0:	ea47 070c 	orr.w	r7, r7, ip
 8000ef4:	6047      	str	r7, [r0, #4]
 8000ef6:	f004 0c03 	and.w	ip, r4, #3
 8000efa:	f1bc 0f03 	cmp.w	ip, #3
 8000efe:	d108      	bne.n	8000f12 <HAL_GPIO_Init+0x86>
 8000f00:	6ac7      	ldr	r7, [r0, #44]	; 0x2c
 8000f02:	ea27 0a0a 	bic.w	sl, r7, sl
 8000f06:	f3c4 07c0 	ubfx	r7, r4, #3, #1
 8000f0a:	409f      	lsls	r7, r3
 8000f0c:	ea47 070a 	orr.w	r7, r7, sl
 8000f10:	62c7      	str	r7, [r0, #44]	; 0x2c
 8000f12:	68c7      	ldr	r7, [r0, #12]
 8000f14:	ea07 0a06 	and.w	sl, r7, r6
 8000f18:	688f      	ldr	r7, [r1, #8]
 8000f1a:	fa07 f708 	lsl.w	r7, r7, r8
 8000f1e:	ea47 070a 	orr.w	r7, r7, sl
 8000f22:	f1be 0f02 	cmp.w	lr, #2
 8000f26:	60c7      	str	r7, [r0, #12]
 8000f28:	d116      	bne.n	8000f58 <HAL_GPIO_Init+0xcc>
 8000f2a:	ea4f 0ad3 	mov.w	sl, r3, lsr #3
 8000f2e:	eb00 0a8a 	add.w	sl, r0, sl, lsl #2
 8000f32:	f003 0b07 	and.w	fp, r3, #7
 8000f36:	f8da 7020 	ldr.w	r7, [sl, #32]
 8000f3a:	ea4f 0b8b 	mov.w	fp, fp, lsl #2
 8000f3e:	f04f 0e0f 	mov.w	lr, #15
 8000f42:	fa0e fe0b 	lsl.w	lr, lr, fp
 8000f46:	ea27 0e0e 	bic.w	lr, r7, lr
 8000f4a:	690f      	ldr	r7, [r1, #16]
 8000f4c:	fa07 f70b 	lsl.w	r7, r7, fp
 8000f50:	ea47 070e 	orr.w	r7, r7, lr
 8000f54:	f8ca 7020 	str.w	r7, [sl, #32]
 8000f58:	6807      	ldr	r7, [r0, #0]
 8000f5a:	fa0c fc08 	lsl.w	ip, ip, r8
 8000f5e:	403e      	ands	r6, r7
 8000f60:	ea4c 0606 	orr.w	r6, ip, r6
 8000f64:	6006      	str	r6, [r0, #0]
 8000f66:	00e6      	lsls	r6, r4, #3
 8000f68:	d559      	bpl.n	800101e <HAL_GPIO_Init+0x192>
 8000f6a:	f8d9 6060 	ldr.w	r6, [r9, #96]	; 0x60
 8000f6e:	f046 0601 	orr.w	r6, r6, #1
 8000f72:	f8c9 6060 	str.w	r6, [r9, #96]	; 0x60
 8000f76:	f8d9 6060 	ldr.w	r6, [r9, #96]	; 0x60
 8000f7a:	f023 0703 	bic.w	r7, r3, #3
 8000f7e:	f107 4780 	add.w	r7, r7, #1073741824	; 0x40000000
 8000f82:	f006 0601 	and.w	r6, r6, #1
 8000f86:	f507 3780 	add.w	r7, r7, #65536	; 0x10000
 8000f8a:	9601      	str	r6, [sp, #4]
 8000f8c:	f003 0e03 	and.w	lr, r3, #3
 8000f90:	9e01      	ldr	r6, [sp, #4]
 8000f92:	68be      	ldr	r6, [r7, #8]
 8000f94:	ea4f 0e8e 	mov.w	lr, lr, lsl #2
 8000f98:	f04f 0c0f 	mov.w	ip, #15
 8000f9c:	fa0c fc0e 	lsl.w	ip, ip, lr
 8000fa0:	f1b0 4f90 	cmp.w	r0, #1207959552	; 0x48000000
 8000fa4:	ea26 0c0c 	bic.w	ip, r6, ip
 8000fa8:	d03b      	beq.n	8001022 <HAL_GPIO_Init+0x196>
 8000faa:	4e25      	ldr	r6, [pc, #148]	; (8001040 <HAL_GPIO_Init+0x1b4>)
 8000fac:	42b0      	cmp	r0, r6
 8000fae:	d03a      	beq.n	8001026 <HAL_GPIO_Init+0x19a>
 8000fb0:	f506 6680 	add.w	r6, r6, #1024	; 0x400
 8000fb4:	42b0      	cmp	r0, r6
 8000fb6:	d038      	beq.n	800102a <HAL_GPIO_Init+0x19e>
 8000fb8:	f506 6680 	add.w	r6, r6, #1024	; 0x400
 8000fbc:	42b0      	cmp	r0, r6
 8000fbe:	d036      	beq.n	800102e <HAL_GPIO_Init+0x1a2>
 8000fc0:	f506 6680 	add.w	r6, r6, #1024	; 0x400
 8000fc4:	42b0      	cmp	r0, r6
 8000fc6:	d034      	beq.n	8001032 <HAL_GPIO_Init+0x1a6>
 8000fc8:	f506 6680 	add.w	r6, r6, #1024	; 0x400
 8000fcc:	42b0      	cmp	r0, r6
 8000fce:	d032      	beq.n	8001036 <HAL_GPIO_Init+0x1aa>
 8000fd0:	f506 6680 	add.w	r6, r6, #1024	; 0x400
 8000fd4:	42b0      	cmp	r0, r6
 8000fd6:	bf0c      	ite	eq
 8000fd8:	2606      	moveq	r6, #6
 8000fda:	2607      	movne	r6, #7
 8000fdc:	fa06 f60e 	lsl.w	r6, r6, lr
 8000fe0:	ea46 060c 	orr.w	r6, r6, ip
 8000fe4:	60be      	str	r6, [r7, #8]
 8000fe6:	682e      	ldr	r6, [r5, #0]
 8000fe8:	43d7      	mvns	r7, r2
 8000fea:	f414 3f80 	tst.w	r4, #65536	; 0x10000
 8000fee:	bf0c      	ite	eq
 8000ff0:	403e      	andeq	r6, r7
 8000ff2:	4316      	orrne	r6, r2
 8000ff4:	602e      	str	r6, [r5, #0]
 8000ff6:	686e      	ldr	r6, [r5, #4]
 8000ff8:	f414 3f00 	tst.w	r4, #131072	; 0x20000
 8000ffc:	bf0c      	ite	eq
 8000ffe:	403e      	andeq	r6, r7
 8001000:	4316      	orrne	r6, r2
 8001002:	606e      	str	r6, [r5, #4]
 8001004:	68ae      	ldr	r6, [r5, #8]
 8001006:	f414 1f80 	tst.w	r4, #1048576	; 0x100000
 800100a:	bf0c      	ite	eq
 800100c:	403e      	andeq	r6, r7
 800100e:	4316      	orrne	r6, r2
 8001010:	60ae      	str	r6, [r5, #8]
 8001012:	68ee      	ldr	r6, [r5, #12]
 8001014:	02a4      	lsls	r4, r4, #10
 8001016:	bf54      	ite	pl
 8001018:	403e      	andpl	r6, r7
 800101a:	4316      	orrmi	r6, r2
 800101c:	60ee      	str	r6, [r5, #12]
 800101e:	3301      	adds	r3, #1
 8001020:	e73a      	b.n	8000e98 <HAL_GPIO_Init+0xc>
 8001022:	2600      	movs	r6, #0
 8001024:	e7da      	b.n	8000fdc <HAL_GPIO_Init+0x150>
 8001026:	2601      	movs	r6, #1
 8001028:	e7d8      	b.n	8000fdc <HAL_GPIO_Init+0x150>
 800102a:	2602      	movs	r6, #2
 800102c:	e7d6      	b.n	8000fdc <HAL_GPIO_Init+0x150>
 800102e:	2603      	movs	r6, #3
 8001030:	e7d4      	b.n	8000fdc <HAL_GPIO_Init+0x150>
 8001032:	2604      	movs	r6, #4
 8001034:	e7d2      	b.n	8000fdc <HAL_GPIO_Init+0x150>
 8001036:	2605      	movs	r6, #5
 8001038:	e7d0      	b.n	8000fdc <HAL_GPIO_Init+0x150>
 800103a:	bf00      	nop
 800103c:	40010400 	.word	0x40010400
 8001040:	48000400 	.word	0x48000400
 8001044:	40021000 	.word	0x40021000

08001048 <HAL_GPIO_WritePin>:
 8001048:	b10a      	cbz	r2, 800104e <HAL_GPIO_WritePin+0x6>
 800104a:	6181      	str	r1, [r0, #24]
 800104c:	4770      	bx	lr
 800104e:	6281      	str	r1, [r0, #40]	; 0x28
 8001050:	4770      	bx	lr
	...

08001054 <HAL_PWREx_GetVoltageRange>:
 8001054:	4b02      	ldr	r3, [pc, #8]	; (8001060 <HAL_PWREx_GetVoltageRange+0xc>)
 8001056:	6818      	ldr	r0, [r3, #0]
 8001058:	f400 60c0 	and.w	r0, r0, #1536	; 0x600
 800105c:	4770      	bx	lr
 800105e:	bf00      	nop
 8001060:	40007000 	.word	0x40007000

08001064 <HAL_PWREx_ControlVoltageScaling>:
 8001064:	4b17      	ldr	r3, [pc, #92]	; (80010c4 <HAL_PWREx_ControlVoltageScaling+0x60>)
 8001066:	681a      	ldr	r2, [r3, #0]
 8001068:	f5b0 7f00 	cmp.w	r0, #512	; 0x200
 800106c:	f402 62c0 	and.w	r2, r2, #1536	; 0x600
 8001070:	d11e      	bne.n	80010b0 <HAL_PWREx_ControlVoltageScaling+0x4c>
 8001072:	f5b2 7f00 	cmp.w	r2, #512	; 0x200
 8001076:	d101      	bne.n	800107c <HAL_PWREx_ControlVoltageScaling+0x18>
 8001078:	2000      	movs	r0, #0
 800107a:	4770      	bx	lr
 800107c:	681a      	ldr	r2, [r3, #0]
 800107e:	f422 62c0 	bic.w	r2, r2, #1536	; 0x600
 8001082:	f442 7200 	orr.w	r2, r2, #512	; 0x200
 8001086:	601a      	str	r2, [r3, #0]
 8001088:	4a0f      	ldr	r2, [pc, #60]	; (80010c8 <HAL_PWREx_ControlVoltageScaling+0x64>)
 800108a:	6811      	ldr	r1, [r2, #0]
 800108c:	2232      	movs	r2, #50	; 0x32
 800108e:	434a      	muls	r2, r1
 8001090:	490e      	ldr	r1, [pc, #56]	; (80010cc <HAL_PWREx_ControlVoltageScaling+0x68>)
 8001092:	fbb2 f2f1 	udiv	r2, r2, r1
 8001096:	4619      	mov	r1, r3
 8001098:	3201      	adds	r2, #1
 800109a:	6958      	ldr	r0, [r3, #20]
 800109c:	0540      	lsls	r0, r0, #21
 800109e:	d500      	bpl.n	80010a2 <HAL_PWREx_ControlVoltageScaling+0x3e>
 80010a0:	b922      	cbnz	r2, 80010ac <HAL_PWREx_ControlVoltageScaling+0x48>
 80010a2:	694b      	ldr	r3, [r1, #20]
 80010a4:	055b      	lsls	r3, r3, #21
 80010a6:	d5e7      	bpl.n	8001078 <HAL_PWREx_ControlVoltageScaling+0x14>
 80010a8:	2003      	movs	r0, #3
 80010aa:	4770      	bx	lr
 80010ac:	3a01      	subs	r2, #1
 80010ae:	e7f4      	b.n	800109a <HAL_PWREx_ControlVoltageScaling+0x36>
 80010b0:	f5b2 6f80 	cmp.w	r2, #1024	; 0x400
 80010b4:	bf1f      	itttt	ne
 80010b6:	681a      	ldrne	r2, [r3, #0]
 80010b8:	f422 62c0 	bicne.w	r2, r2, #1536	; 0x600
 80010bc:	f442 6280 	orrne.w	r2, r2, #1024	; 0x400
 80010c0:	601a      	strne	r2, [r3, #0]
 80010c2:	e7d9      	b.n	8001078 <HAL_PWREx_ControlVoltageScaling+0x14>
 80010c4:	40007000 	.word	0x40007000
 80010c8:	20000020 	.word	0x20000020
 80010cc:	000f4240 	.word	0x000f4240

080010d0 <RCC_SetFlashLatencyFromMSIRange>:
 80010d0:	b537      	push	{r0, r1, r2, r4, r5, lr}
 80010d2:	4d1e      	ldr	r5, [pc, #120]	; (800114c <RCC_SetFlashLatencyFromMSIRange+0x7c>)
 80010d4:	6dab      	ldr	r3, [r5, #88]	; 0x58
 80010d6:	00da      	lsls	r2, r3, #3
 80010d8:	4604      	mov	r4, r0
 80010da:	d518      	bpl.n	800110e <RCC_SetFlashLatencyFromMSIRange+0x3e>
 80010dc:	f7ff ffba 	bl	8001054 <HAL_PWREx_GetVoltageRange>
 80010e0:	f5b0 7f00 	cmp.w	r0, #512	; 0x200
 80010e4:	d123      	bne.n	800112e <RCC_SetFlashLatencyFromMSIRange+0x5e>
 80010e6:	2c80      	cmp	r4, #128	; 0x80
 80010e8:	d929      	bls.n	800113e <RCC_SetFlashLatencyFromMSIRange+0x6e>
 80010ea:	2ca0      	cmp	r4, #160	; 0xa0
 80010ec:	bf8c      	ite	hi
 80010ee:	2402      	movhi	r4, #2
 80010f0:	2401      	movls	r4, #1
 80010f2:	4917      	ldr	r1, [pc, #92]	; (8001150 <RCC_SetFlashLatencyFromMSIRange+0x80>)
 80010f4:	680a      	ldr	r2, [r1, #0]
 80010f6:	f022 0207 	bic.w	r2, r2, #7
 80010fa:	4322      	orrs	r2, r4
 80010fc:	600a      	str	r2, [r1, #0]
 80010fe:	6808      	ldr	r0, [r1, #0]
 8001100:	f000 0007 	and.w	r0, r0, #7
 8001104:	1b00      	subs	r0, r0, r4
 8001106:	bf18      	it	ne
 8001108:	2001      	movne	r0, #1
 800110a:	b003      	add	sp, #12
 800110c:	bd30      	pop	{r4, r5, pc}
 800110e:	6dab      	ldr	r3, [r5, #88]	; 0x58
 8001110:	f043 5380 	orr.w	r3, r3, #268435456	; 0x10000000
 8001114:	65ab      	str	r3, [r5, #88]	; 0x58
 8001116:	6dab      	ldr	r3, [r5, #88]	; 0x58
 8001118:	f003 5380 	and.w	r3, r3, #268435456	; 0x10000000
 800111c:	9301      	str	r3, [sp, #4]
 800111e:	9b01      	ldr	r3, [sp, #4]
 8001120:	f7ff ff98 	bl	8001054 <HAL_PWREx_GetVoltageRange>
 8001124:	6dab      	ldr	r3, [r5, #88]	; 0x58
 8001126:	f023 5380 	bic.w	r3, r3, #268435456	; 0x10000000
 800112a:	65ab      	str	r3, [r5, #88]	; 0x58
 800112c:	e7d8      	b.n	80010e0 <RCC_SetFlashLatencyFromMSIRange+0x10>
 800112e:	2c80      	cmp	r4, #128	; 0x80
 8001130:	d807      	bhi.n	8001142 <RCC_SetFlashLatencyFromMSIRange+0x72>
 8001132:	d008      	beq.n	8001146 <RCC_SetFlashLatencyFromMSIRange+0x76>
 8001134:	f1a4 0370 	sub.w	r3, r4, #112	; 0x70
 8001138:	425c      	negs	r4, r3
 800113a:	415c      	adcs	r4, r3
 800113c:	e7d9      	b.n	80010f2 <RCC_SetFlashLatencyFromMSIRange+0x22>
 800113e:	2400      	movs	r4, #0
 8001140:	e7d7      	b.n	80010f2 <RCC_SetFlashLatencyFromMSIRange+0x22>
 8001142:	2403      	movs	r4, #3
 8001144:	e7d5      	b.n	80010f2 <RCC_SetFlashLatencyFromMSIRange+0x22>
 8001146:	2402      	movs	r4, #2
 8001148:	e7d3      	b.n	80010f2 <RCC_SetFlashLatencyFromMSIRange+0x22>
 800114a:	bf00      	nop
 800114c:	40021000 	.word	0x40021000
 8001150:	40022000 	.word	0x40022000

08001154 <HAL_RCC_GetSysClockFreq>:
 8001154:	4b22      	ldr	r3, [pc, #136]	; (80011e0 <HAL_RCC_GetSysClockFreq+0x8c>)
 8001156:	689a      	ldr	r2, [r3, #8]
 8001158:	68d9      	ldr	r1, [r3, #12]
 800115a:	f012 020c 	ands.w	r2, r2, #12
 800115e:	d005      	beq.n	800116c <HAL_RCC_GetSysClockFreq+0x18>
 8001160:	2a0c      	cmp	r2, #12
 8001162:	d115      	bne.n	8001190 <HAL_RCC_GetSysClockFreq+0x3c>
 8001164:	f001 0103 	and.w	r1, r1, #3
 8001168:	2901      	cmp	r1, #1
 800116a:	d118      	bne.n	800119e <HAL_RCC_GetSysClockFreq+0x4a>
 800116c:	6819      	ldr	r1, [r3, #0]
 800116e:	481d      	ldr	r0, [pc, #116]	; (80011e4 <HAL_RCC_GetSysClockFreq+0x90>)
 8001170:	0709      	lsls	r1, r1, #28
 8001172:	bf55      	itete	pl
 8001174:	f8d3 1094 	ldrpl.w	r1, [r3, #148]	; 0x94
 8001178:	6819      	ldrmi	r1, [r3, #0]
 800117a:	f3c1 2103 	ubfxpl	r1, r1, #8, #4
 800117e:	f3c1 1103 	ubfxmi	r1, r1, #4, #4
 8001182:	f850 0021 	ldr.w	r0, [r0, r1, lsl #2]
 8001186:	b34a      	cbz	r2, 80011dc <HAL_RCC_GetSysClockFreq+0x88>
 8001188:	2a0c      	cmp	r2, #12
 800118a:	d009      	beq.n	80011a0 <HAL_RCC_GetSysClockFreq+0x4c>
 800118c:	2000      	movs	r0, #0
 800118e:	4770      	bx	lr
 8001190:	2a04      	cmp	r2, #4
 8001192:	d022      	beq.n	80011da <HAL_RCC_GetSysClockFreq+0x86>
 8001194:	2a08      	cmp	r2, #8
 8001196:	4814      	ldr	r0, [pc, #80]	; (80011e8 <HAL_RCC_GetSysClockFreq+0x94>)
 8001198:	bf18      	it	ne
 800119a:	2000      	movne	r0, #0
 800119c:	4770      	bx	lr
 800119e:	2000      	movs	r0, #0
 80011a0:	68da      	ldr	r2, [r3, #12]
 80011a2:	f002 0203 	and.w	r2, r2, #3
 80011a6:	2a02      	cmp	r2, #2
 80011a8:	d015      	beq.n	80011d6 <HAL_RCC_GetSysClockFreq+0x82>
 80011aa:	490f      	ldr	r1, [pc, #60]	; (80011e8 <HAL_RCC_GetSysClockFreq+0x94>)
 80011ac:	2a03      	cmp	r2, #3
 80011ae:	bf08      	it	eq
 80011b0:	4608      	moveq	r0, r1
 80011b2:	68da      	ldr	r2, [r3, #12]
 80011b4:	68d9      	ldr	r1, [r3, #12]
 80011b6:	68db      	ldr	r3, [r3, #12]
 80011b8:	f3c3 6341 	ubfx	r3, r3, #25, #2
 80011bc:	f3c1 2106 	ubfx	r1, r1, #8, #7
 80011c0:	f3c2 1202 	ubfx	r2, r2, #4, #3
 80011c4:	3301      	adds	r3, #1
 80011c6:	4348      	muls	r0, r1
 80011c8:	3201      	adds	r2, #1
 80011ca:	005b      	lsls	r3, r3, #1
 80011cc:	fbb0 f0f2 	udiv	r0, r0, r2
 80011d0:	fbb0 f0f3 	udiv	r0, r0, r3
 80011d4:	4770      	bx	lr
 80011d6:	4805      	ldr	r0, [pc, #20]	; (80011ec <HAL_RCC_GetSysClockFreq+0x98>)
 80011d8:	e7eb      	b.n	80011b2 <HAL_RCC_GetSysClockFreq+0x5e>
 80011da:	4804      	ldr	r0, [pc, #16]	; (80011ec <HAL_RCC_GetSysClockFreq+0x98>)
 80011dc:	4770      	bx	lr
 80011de:	bf00      	nop
 80011e0:	40021000 	.word	0x40021000
 80011e4:	08002820 	.word	0x08002820
 80011e8:	007a1200 	.word	0x007a1200
 80011ec:	00f42400 	.word	0x00f42400

080011f0 <HAL_RCC_OscConfig>:
 80011f0:	e92d 43f7 	stmdb	sp!, {r0, r1, r2, r4, r5, r6, r7, r8, r9, lr}
 80011f4:	4605      	mov	r5, r0
 80011f6:	b918      	cbnz	r0, 8001200 <HAL_RCC_OscConfig+0x10>
 80011f8:	2001      	movs	r0, #1
 80011fa:	b003      	add	sp, #12
 80011fc:	e8bd 83f0 	ldmia.w	sp!, {r4, r5, r6, r7, r8, r9, pc}
 8001200:	4ca7      	ldr	r4, [pc, #668]	; (80014a0 <HAL_RCC_OscConfig+0x2b0>)
 8001202:	6803      	ldr	r3, [r0, #0]
 8001204:	68a6      	ldr	r6, [r4, #8]
 8001206:	68e7      	ldr	r7, [r4, #12]
 8001208:	06d8      	lsls	r0, r3, #27
 800120a:	f006 060c 	and.w	r6, r6, #12
 800120e:	f007 0703 	and.w	r7, r7, #3
 8001212:	d53d      	bpl.n	8001290 <HAL_RCC_OscConfig+0xa0>
 8001214:	b11e      	cbz	r6, 800121e <HAL_RCC_OscConfig+0x2e>
 8001216:	2e0c      	cmp	r6, #12
 8001218:	d166      	bne.n	80012e8 <HAL_RCC_OscConfig+0xf8>
 800121a:	2f01      	cmp	r7, #1
 800121c:	d164      	bne.n	80012e8 <HAL_RCC_OscConfig+0xf8>
 800121e:	6823      	ldr	r3, [r4, #0]
 8001220:	0799      	lsls	r1, r3, #30
 8001222:	d502      	bpl.n	800122a <HAL_RCC_OscConfig+0x3a>
 8001224:	69ab      	ldr	r3, [r5, #24]
 8001226:	2b00      	cmp	r3, #0
 8001228:	d0e6      	beq.n	80011f8 <HAL_RCC_OscConfig+0x8>
 800122a:	6823      	ldr	r3, [r4, #0]
 800122c:	6a28      	ldr	r0, [r5, #32]
 800122e:	071a      	lsls	r2, r3, #28
 8001230:	bf56      	itet	pl
 8001232:	f8d4 3094 	ldrpl.w	r3, [r4, #148]	; 0x94
 8001236:	6823      	ldrmi	r3, [r4, #0]
 8001238:	091b      	lsrpl	r3, r3, #4
 800123a:	f003 03f0 	and.w	r3, r3, #240	; 0xf0
 800123e:	4298      	cmp	r0, r3
 8001240:	d93b      	bls.n	80012ba <HAL_RCC_OscConfig+0xca>
 8001242:	f7ff ff45 	bl	80010d0 <RCC_SetFlashLatencyFromMSIRange>
 8001246:	2800      	cmp	r0, #0
 8001248:	d1d6      	bne.n	80011f8 <HAL_RCC_OscConfig+0x8>
 800124a:	6823      	ldr	r3, [r4, #0]
 800124c:	f043 0308 	orr.w	r3, r3, #8
 8001250:	6023      	str	r3, [r4, #0]
 8001252:	6823      	ldr	r3, [r4, #0]
 8001254:	6a2a      	ldr	r2, [r5, #32]
 8001256:	f023 03f0 	bic.w	r3, r3, #240	; 0xf0
 800125a:	4313      	orrs	r3, r2
 800125c:	6023      	str	r3, [r4, #0]
 800125e:	6863      	ldr	r3, [r4, #4]
 8001260:	69ea      	ldr	r2, [r5, #28]
 8001262:	f423 437f 	bic.w	r3, r3, #65280	; 0xff00
 8001266:	ea43 2302 	orr.w	r3, r3, r2, lsl #8
 800126a:	6063      	str	r3, [r4, #4]
 800126c:	f7ff ff72 	bl	8001154 <HAL_RCC_GetSysClockFreq>
 8001270:	68a3      	ldr	r3, [r4, #8]
 8001272:	4a8c      	ldr	r2, [pc, #560]	; (80014a4 <HAL_RCC_OscConfig+0x2b4>)
 8001274:	f3c3 1303 	ubfx	r3, r3, #4, #4
 8001278:	5cd3      	ldrb	r3, [r2, r3]
 800127a:	f003 031f 	and.w	r3, r3, #31
 800127e:	40d8      	lsrs	r0, r3
 8001280:	4b89      	ldr	r3, [pc, #548]	; (80014a8 <HAL_RCC_OscConfig+0x2b8>)
 8001282:	6018      	str	r0, [r3, #0]
 8001284:	4b89      	ldr	r3, [pc, #548]	; (80014ac <HAL_RCC_OscConfig+0x2bc>)
 8001286:	6818      	ldr	r0, [r3, #0]
 8001288:	f7ff fd4a 	bl	8000d20 <HAL_InitTick>
 800128c:	2800      	cmp	r0, #0
 800128e:	d1b4      	bne.n	80011fa <HAL_RCC_OscConfig+0xa>
 8001290:	682b      	ldr	r3, [r5, #0]
 8001292:	07d9      	lsls	r1, r3, #31
 8001294:	d45f      	bmi.n	8001356 <HAL_RCC_OscConfig+0x166>
 8001296:	682b      	ldr	r3, [r5, #0]
 8001298:	079a      	lsls	r2, r3, #30
 800129a:	f100 809e 	bmi.w	80013da <HAL_RCC_OscConfig+0x1ea>
 800129e:	682b      	ldr	r3, [r5, #0]
 80012a0:	0719      	lsls	r1, r3, #28
 80012a2:	f100 80d2 	bmi.w	800144a <HAL_RCC_OscConfig+0x25a>
 80012a6:	682b      	ldr	r3, [r5, #0]
 80012a8:	075a      	lsls	r2, r3, #29
 80012aa:	f100 8101 	bmi.w	80014b0 <HAL_RCC_OscConfig+0x2c0>
 80012ae:	6aab      	ldr	r3, [r5, #40]	; 0x28
 80012b0:	2b00      	cmp	r3, #0
 80012b2:	f040 816a 	bne.w	800158a <HAL_RCC_OscConfig+0x39a>
 80012b6:	2000      	movs	r0, #0
 80012b8:	e79f      	b.n	80011fa <HAL_RCC_OscConfig+0xa>
 80012ba:	6823      	ldr	r3, [r4, #0]
 80012bc:	f043 0308 	orr.w	r3, r3, #8
 80012c0:	6023      	str	r3, [r4, #0]
 80012c2:	6823      	ldr	r3, [r4, #0]
 80012c4:	f023 03f0 	bic.w	r3, r3, #240	; 0xf0
 80012c8:	4303      	orrs	r3, r0
 80012ca:	6023      	str	r3, [r4, #0]
 80012cc:	6863      	ldr	r3, [r4, #4]
 80012ce:	69ea      	ldr	r2, [r5, #28]
 80012d0:	f423 437f 	bic.w	r3, r3, #65280	; 0xff00
 80012d4:	ea43 2302 	orr.w	r3, r3, r2, lsl #8
 80012d8:	6063      	str	r3, [r4, #4]
 80012da:	2e00      	cmp	r6, #0
 80012dc:	d1c6      	bne.n	800126c <HAL_RCC_OscConfig+0x7c>
 80012de:	f7ff fef7 	bl	80010d0 <RCC_SetFlashLatencyFromMSIRange>
 80012e2:	2800      	cmp	r0, #0
 80012e4:	d0c2      	beq.n	800126c <HAL_RCC_OscConfig+0x7c>
 80012e6:	e787      	b.n	80011f8 <HAL_RCC_OscConfig+0x8>
 80012e8:	69ab      	ldr	r3, [r5, #24]
 80012ea:	b31b      	cbz	r3, 8001334 <HAL_RCC_OscConfig+0x144>
 80012ec:	6823      	ldr	r3, [r4, #0]
 80012ee:	f043 0301 	orr.w	r3, r3, #1
 80012f2:	6023      	str	r3, [r4, #0]
 80012f4:	f7ff fd56 	bl	8000da4 <HAL_GetTick>
 80012f8:	4680      	mov	r8, r0
 80012fa:	6823      	ldr	r3, [r4, #0]
 80012fc:	079b      	lsls	r3, r3, #30
 80012fe:	d511      	bpl.n	8001324 <HAL_RCC_OscConfig+0x134>
 8001300:	6823      	ldr	r3, [r4, #0]
 8001302:	f043 0308 	orr.w	r3, r3, #8
 8001306:	6023      	str	r3, [r4, #0]
 8001308:	6823      	ldr	r3, [r4, #0]
 800130a:	6a2a      	ldr	r2, [r5, #32]
 800130c:	f023 03f0 	bic.w	r3, r3, #240	; 0xf0
 8001310:	4313      	orrs	r3, r2
 8001312:	6023      	str	r3, [r4, #0]
 8001314:	6863      	ldr	r3, [r4, #4]
 8001316:	69ea      	ldr	r2, [r5, #28]
 8001318:	f423 437f 	bic.w	r3, r3, #65280	; 0xff00
 800131c:	ea43 2302 	orr.w	r3, r3, r2, lsl #8
 8001320:	6063      	str	r3, [r4, #4]
 8001322:	e7b5      	b.n	8001290 <HAL_RCC_OscConfig+0xa0>
 8001324:	f7ff fd3e 	bl	8000da4 <HAL_GetTick>
 8001328:	eba0 0008 	sub.w	r0, r0, r8
 800132c:	2802      	cmp	r0, #2
 800132e:	d9e4      	bls.n	80012fa <HAL_RCC_OscConfig+0x10a>
 8001330:	2003      	movs	r0, #3
 8001332:	e762      	b.n	80011fa <HAL_RCC_OscConfig+0xa>
 8001334:	6823      	ldr	r3, [r4, #0]
 8001336:	f023 0301 	bic.w	r3, r3, #1
 800133a:	6023      	str	r3, [r4, #0]
 800133c:	f7ff fd32 	bl	8000da4 <HAL_GetTick>
 8001340:	4680      	mov	r8, r0
 8001342:	6823      	ldr	r3, [r4, #0]
 8001344:	0798      	lsls	r0, r3, #30
 8001346:	d5a3      	bpl.n	8001290 <HAL_RCC_OscConfig+0xa0>
 8001348:	f7ff fd2c 	bl	8000da4 <HAL_GetTick>
 800134c:	eba0 0008 	sub.w	r0, r0, r8
 8001350:	2802      	cmp	r0, #2
 8001352:	d9f6      	bls.n	8001342 <HAL_RCC_OscConfig+0x152>
 8001354:	e7ec      	b.n	8001330 <HAL_RCC_OscConfig+0x140>
 8001356:	2e08      	cmp	r6, #8
 8001358:	d003      	beq.n	8001362 <HAL_RCC_OscConfig+0x172>
 800135a:	2e0c      	cmp	r6, #12
 800135c:	d108      	bne.n	8001370 <HAL_RCC_OscConfig+0x180>
 800135e:	2f03      	cmp	r7, #3
 8001360:	d106      	bne.n	8001370 <HAL_RCC_OscConfig+0x180>
 8001362:	6823      	ldr	r3, [r4, #0]
 8001364:	039b      	lsls	r3, r3, #14
 8001366:	d596      	bpl.n	8001296 <HAL_RCC_OscConfig+0xa6>
 8001368:	686b      	ldr	r3, [r5, #4]
 800136a:	2b00      	cmp	r3, #0
 800136c:	d193      	bne.n	8001296 <HAL_RCC_OscConfig+0xa6>
 800136e:	e743      	b.n	80011f8 <HAL_RCC_OscConfig+0x8>
 8001370:	686b      	ldr	r3, [r5, #4]
 8001372:	f5b3 3f80 	cmp.w	r3, #65536	; 0x10000
 8001376:	d110      	bne.n	800139a <HAL_RCC_OscConfig+0x1aa>
 8001378:	6823      	ldr	r3, [r4, #0]
 800137a:	f443 3380 	orr.w	r3, r3, #65536	; 0x10000
 800137e:	6023      	str	r3, [r4, #0]
 8001380:	f7ff fd10 	bl	8000da4 <HAL_GetTick>
 8001384:	4680      	mov	r8, r0
 8001386:	6823      	ldr	r3, [r4, #0]
 8001388:	0398      	lsls	r0, r3, #14
 800138a:	d484      	bmi.n	8001296 <HAL_RCC_OscConfig+0xa6>
 800138c:	f7ff fd0a 	bl	8000da4 <HAL_GetTick>
 8001390:	eba0 0008 	sub.w	r0, r0, r8
 8001394:	2864      	cmp	r0, #100	; 0x64
 8001396:	d9f6      	bls.n	8001386 <HAL_RCC_OscConfig+0x196>
 8001398:	e7ca      	b.n	8001330 <HAL_RCC_OscConfig+0x140>
 800139a:	f5b3 2fa0 	cmp.w	r3, #327680	; 0x50000
 800139e:	d104      	bne.n	80013aa <HAL_RCC_OscConfig+0x1ba>
 80013a0:	6823      	ldr	r3, [r4, #0]
 80013a2:	f443 2380 	orr.w	r3, r3, #262144	; 0x40000
 80013a6:	6023      	str	r3, [r4, #0]
 80013a8:	e7e6      	b.n	8001378 <HAL_RCC_OscConfig+0x188>
 80013aa:	6822      	ldr	r2, [r4, #0]
 80013ac:	f422 3280 	bic.w	r2, r2, #65536	; 0x10000
 80013b0:	6022      	str	r2, [r4, #0]
 80013b2:	6822      	ldr	r2, [r4, #0]
 80013b4:	f422 2280 	bic.w	r2, r2, #262144	; 0x40000
 80013b8:	6022      	str	r2, [r4, #0]
 80013ba:	2b00      	cmp	r3, #0
 80013bc:	d1e0      	bne.n	8001380 <HAL_RCC_OscConfig+0x190>
 80013be:	f7ff fcf1 	bl	8000da4 <HAL_GetTick>
 80013c2:	4680      	mov	r8, r0
 80013c4:	6823      	ldr	r3, [r4, #0]
 80013c6:	0399      	lsls	r1, r3, #14
 80013c8:	f57f af65 	bpl.w	8001296 <HAL_RCC_OscConfig+0xa6>
 80013cc:	f7ff fcea 	bl	8000da4 <HAL_GetTick>
 80013d0:	eba0 0008 	sub.w	r0, r0, r8
 80013d4:	2864      	cmp	r0, #100	; 0x64
 80013d6:	d9f5      	bls.n	80013c4 <HAL_RCC_OscConfig+0x1d4>
 80013d8:	e7aa      	b.n	8001330 <HAL_RCC_OscConfig+0x140>
 80013da:	2e04      	cmp	r6, #4
 80013dc:	d003      	beq.n	80013e6 <HAL_RCC_OscConfig+0x1f6>
 80013de:	2e0c      	cmp	r6, #12
 80013e0:	d110      	bne.n	8001404 <HAL_RCC_OscConfig+0x214>
 80013e2:	2f02      	cmp	r7, #2
 80013e4:	d10e      	bne.n	8001404 <HAL_RCC_OscConfig+0x214>
 80013e6:	6823      	ldr	r3, [r4, #0]
 80013e8:	055a      	lsls	r2, r3, #21
 80013ea:	d503      	bpl.n	80013f4 <HAL_RCC_OscConfig+0x204>
 80013ec:	68eb      	ldr	r3, [r5, #12]
 80013ee:	2b00      	cmp	r3, #0
 80013f0:	f43f af02 	beq.w	80011f8 <HAL_RCC_OscConfig+0x8>
 80013f4:	6863      	ldr	r3, [r4, #4]
 80013f6:	692a      	ldr	r2, [r5, #16]
 80013f8:	f023 53f8 	bic.w	r3, r3, #520093696	; 0x1f000000
 80013fc:	ea43 6302 	orr.w	r3, r3, r2, lsl #24
 8001400:	6063      	str	r3, [r4, #4]
 8001402:	e74c      	b.n	800129e <HAL_RCC_OscConfig+0xae>
 8001404:	68eb      	ldr	r3, [r5, #12]
 8001406:	b17b      	cbz	r3, 8001428 <HAL_RCC_OscConfig+0x238>
 8001408:	6823      	ldr	r3, [r4, #0]
 800140a:	f443 7380 	orr.w	r3, r3, #256	; 0x100
 800140e:	6023      	str	r3, [r4, #0]
 8001410:	f7ff fcc8 	bl	8000da4 <HAL_GetTick>
 8001414:	4607      	mov	r7, r0
 8001416:	6823      	ldr	r3, [r4, #0]
 8001418:	055b      	lsls	r3, r3, #21
 800141a:	d4eb      	bmi.n	80013f4 <HAL_RCC_OscConfig+0x204>
 800141c:	f7ff fcc2 	bl	8000da4 <HAL_GetTick>
 8001420:	1bc0      	subs	r0, r0, r7
 8001422:	2802      	cmp	r0, #2
 8001424:	d9f7      	bls.n	8001416 <HAL_RCC_OscConfig+0x226>
 8001426:	e783      	b.n	8001330 <HAL_RCC_OscConfig+0x140>
 8001428:	6823      	ldr	r3, [r4, #0]
 800142a:	f423 7380 	bic.w	r3, r3, #256	; 0x100
 800142e:	6023      	str	r3, [r4, #0]
 8001430:	f7ff fcb8 	bl	8000da4 <HAL_GetTick>
 8001434:	4607      	mov	r7, r0
 8001436:	6823      	ldr	r3, [r4, #0]
 8001438:	0558      	lsls	r0, r3, #21
 800143a:	f57f af30 	bpl.w	800129e <HAL_RCC_OscConfig+0xae>
 800143e:	f7ff fcb1 	bl	8000da4 <HAL_GetTick>
 8001442:	1bc0      	subs	r0, r0, r7
 8001444:	2802      	cmp	r0, #2
 8001446:	d9f6      	bls.n	8001436 <HAL_RCC_OscConfig+0x246>
 8001448:	e772      	b.n	8001330 <HAL_RCC_OscConfig+0x140>
 800144a:	696b      	ldr	r3, [r5, #20]
 800144c:	b19b      	cbz	r3, 8001476 <HAL_RCC_OscConfig+0x286>
 800144e:	f8d4 3094 	ldr.w	r3, [r4, #148]	; 0x94
 8001452:	f043 0301 	orr.w	r3, r3, #1
 8001456:	f8c4 3094 	str.w	r3, [r4, #148]	; 0x94
 800145a:	f7ff fca3 	bl	8000da4 <HAL_GetTick>
 800145e:	4607      	mov	r7, r0
 8001460:	f8d4 3094 	ldr.w	r3, [r4, #148]	; 0x94
 8001464:	079b      	lsls	r3, r3, #30
 8001466:	f53f af1e 	bmi.w	80012a6 <HAL_RCC_OscConfig+0xb6>
 800146a:	f7ff fc9b 	bl	8000da4 <HAL_GetTick>
 800146e:	1bc0      	subs	r0, r0, r7
 8001470:	2802      	cmp	r0, #2
 8001472:	d9f5      	bls.n	8001460 <HAL_RCC_OscConfig+0x270>
 8001474:	e75c      	b.n	8001330 <HAL_RCC_OscConfig+0x140>
 8001476:	f8d4 3094 	ldr.w	r3, [r4, #148]	; 0x94
 800147a:	f023 0301 	bic.w	r3, r3, #1
 800147e:	f8c4 3094 	str.w	r3, [r4, #148]	; 0x94
 8001482:	f7ff fc8f 	bl	8000da4 <HAL_GetTick>
 8001486:	4607      	mov	r7, r0
 8001488:	f8d4 3094 	ldr.w	r3, [r4, #148]	; 0x94
 800148c:	0798      	lsls	r0, r3, #30
 800148e:	f57f af0a 	bpl.w	80012a6 <HAL_RCC_OscConfig+0xb6>
 8001492:	f7ff fc87 	bl	8000da4 <HAL_GetTick>
 8001496:	1bc0      	subs	r0, r0, r7
 8001498:	2802      	cmp	r0, #2
 800149a:	d9f5      	bls.n	8001488 <HAL_RCC_OscConfig+0x298>
 800149c:	e748      	b.n	8001330 <HAL_RCC_OscConfig+0x140>
 800149e:	bf00      	nop
 80014a0:	40021000 	.word	0x40021000
 80014a4:	08002810 	.word	0x08002810
 80014a8:	20000020 	.word	0x20000020
 80014ac:	20000028 	.word	0x20000028
 80014b0:	6da3      	ldr	r3, [r4, #88]	; 0x58
 80014b2:	00d9      	lsls	r1, r3, #3
 80014b4:	d429      	bmi.n	800150a <HAL_RCC_OscConfig+0x31a>
 80014b6:	6da3      	ldr	r3, [r4, #88]	; 0x58
 80014b8:	f043 5380 	orr.w	r3, r3, #268435456	; 0x10000000
 80014bc:	65a3      	str	r3, [r4, #88]	; 0x58
 80014be:	6da3      	ldr	r3, [r4, #88]	; 0x58
 80014c0:	f003 5380 	and.w	r3, r3, #268435456	; 0x10000000
 80014c4:	9301      	str	r3, [sp, #4]
 80014c6:	9b01      	ldr	r3, [sp, #4]
 80014c8:	f04f 0801 	mov.w	r8, #1
 80014cc:	4f89      	ldr	r7, [pc, #548]	; (80016f4 <HAL_RCC_OscConfig+0x504>)
 80014ce:	683b      	ldr	r3, [r7, #0]
 80014d0:	05da      	lsls	r2, r3, #23
 80014d2:	d51d      	bpl.n	8001510 <HAL_RCC_OscConfig+0x320>
 80014d4:	68ab      	ldr	r3, [r5, #8]
 80014d6:	2b01      	cmp	r3, #1
 80014d8:	d12b      	bne.n	8001532 <HAL_RCC_OscConfig+0x342>
 80014da:	f8d4 3090 	ldr.w	r3, [r4, #144]	; 0x90
 80014de:	f043 0301 	orr.w	r3, r3, #1
 80014e2:	f8c4 3090 	str.w	r3, [r4, #144]	; 0x90
 80014e6:	f7ff fc5d 	bl	8000da4 <HAL_GetTick>
 80014ea:	f241 3988 	movw	r9, #5000	; 0x1388
 80014ee:	4607      	mov	r7, r0
 80014f0:	f8d4 3090 	ldr.w	r3, [r4, #144]	; 0x90
 80014f4:	0798      	lsls	r0, r3, #30
 80014f6:	d542      	bpl.n	800157e <HAL_RCC_OscConfig+0x38e>
 80014f8:	f1b8 0f00 	cmp.w	r8, #0
 80014fc:	f43f aed7 	beq.w	80012ae <HAL_RCC_OscConfig+0xbe>
 8001500:	6da3      	ldr	r3, [r4, #88]	; 0x58
 8001502:	f023 5380 	bic.w	r3, r3, #268435456	; 0x10000000
 8001506:	65a3      	str	r3, [r4, #88]	; 0x58
 8001508:	e6d1      	b.n	80012ae <HAL_RCC_OscConfig+0xbe>
 800150a:	f04f 0800 	mov.w	r8, #0
 800150e:	e7dd      	b.n	80014cc <HAL_RCC_OscConfig+0x2dc>
 8001510:	683b      	ldr	r3, [r7, #0]
 8001512:	f443 7380 	orr.w	r3, r3, #256	; 0x100
 8001516:	603b      	str	r3, [r7, #0]
 8001518:	f7ff fc44 	bl	8000da4 <HAL_GetTick>
 800151c:	4681      	mov	r9, r0
 800151e:	683b      	ldr	r3, [r7, #0]
 8001520:	05db      	lsls	r3, r3, #23
 8001522:	d4d7      	bmi.n	80014d4 <HAL_RCC_OscConfig+0x2e4>
 8001524:	f7ff fc3e 	bl	8000da4 <HAL_GetTick>
 8001528:	eba0 0009 	sub.w	r0, r0, r9
 800152c:	2802      	cmp	r0, #2
 800152e:	d9f6      	bls.n	800151e <HAL_RCC_OscConfig+0x32e>
 8001530:	e6fe      	b.n	8001330 <HAL_RCC_OscConfig+0x140>
 8001532:	2b05      	cmp	r3, #5
 8001534:	d106      	bne.n	8001544 <HAL_RCC_OscConfig+0x354>
 8001536:	f8d4 3090 	ldr.w	r3, [r4, #144]	; 0x90
 800153a:	f043 0304 	orr.w	r3, r3, #4
 800153e:	f8c4 3090 	str.w	r3, [r4, #144]	; 0x90
 8001542:	e7ca      	b.n	80014da <HAL_RCC_OscConfig+0x2ea>
 8001544:	f8d4 2090 	ldr.w	r2, [r4, #144]	; 0x90
 8001548:	f022 0201 	bic.w	r2, r2, #1
 800154c:	f8c4 2090 	str.w	r2, [r4, #144]	; 0x90
 8001550:	f8d4 2090 	ldr.w	r2, [r4, #144]	; 0x90
 8001554:	f022 0204 	bic.w	r2, r2, #4
 8001558:	f8c4 2090 	str.w	r2, [r4, #144]	; 0x90
 800155c:	2b00      	cmp	r3, #0
 800155e:	d1c2      	bne.n	80014e6 <HAL_RCC_OscConfig+0x2f6>
 8001560:	f7ff fc20 	bl	8000da4 <HAL_GetTick>
 8001564:	f241 3988 	movw	r9, #5000	; 0x1388
 8001568:	4607      	mov	r7, r0
 800156a:	f8d4 3090 	ldr.w	r3, [r4, #144]	; 0x90
 800156e:	0799      	lsls	r1, r3, #30
 8001570:	d5c2      	bpl.n	80014f8 <HAL_RCC_OscConfig+0x308>
 8001572:	f7ff fc17 	bl	8000da4 <HAL_GetTick>
 8001576:	1bc0      	subs	r0, r0, r7
 8001578:	4548      	cmp	r0, r9
 800157a:	d9f6      	bls.n	800156a <HAL_RCC_OscConfig+0x37a>
 800157c:	e6d8      	b.n	8001330 <HAL_RCC_OscConfig+0x140>
 800157e:	f7ff fc11 	bl	8000da4 <HAL_GetTick>
 8001582:	1bc0      	subs	r0, r0, r7
 8001584:	4548      	cmp	r0, r9
 8001586:	d9b3      	bls.n	80014f0 <HAL_RCC_OscConfig+0x300>
 8001588:	e6d2      	b.n	8001330 <HAL_RCC_OscConfig+0x140>
 800158a:	2b02      	cmp	r3, #2
 800158c:	f040 808f 	bne.w	80016ae <HAL_RCC_OscConfig+0x4be>
 8001590:	68e3      	ldr	r3, [r4, #12]
 8001592:	6aea      	ldr	r2, [r5, #44]	; 0x2c
 8001594:	f003 0103 	and.w	r1, r3, #3
 8001598:	4291      	cmp	r1, r2
 800159a:	d124      	bne.n	80015e6 <HAL_RCC_OscConfig+0x3f6>
 800159c:	6b29      	ldr	r1, [r5, #48]	; 0x30
 800159e:	f003 0270 	and.w	r2, r3, #112	; 0x70
 80015a2:	3901      	subs	r1, #1
 80015a4:	ebb2 1f01 	cmp.w	r2, r1, lsl #4
 80015a8:	d11d      	bne.n	80015e6 <HAL_RCC_OscConfig+0x3f6>
 80015aa:	6b69      	ldr	r1, [r5, #52]	; 0x34
 80015ac:	f403 42fe 	and.w	r2, r3, #32512	; 0x7f00
 80015b0:	ebb2 2f01 	cmp.w	r2, r1, lsl #8
 80015b4:	d117      	bne.n	80015e6 <HAL_RCC_OscConfig+0x3f6>
 80015b6:	6baa      	ldr	r2, [r5, #56]	; 0x38
 80015b8:	3a07      	subs	r2, #7
 80015ba:	f403 3100 	and.w	r1, r3, #131072	; 0x20000
 80015be:	bf18      	it	ne
 80015c0:	2201      	movne	r2, #1
 80015c2:	4291      	cmp	r1, r2
 80015c4:	d10f      	bne.n	80015e6 <HAL_RCC_OscConfig+0x3f6>
 80015c6:	6bea      	ldr	r2, [r5, #60]	; 0x3c
 80015c8:	0852      	lsrs	r2, r2, #1
 80015ca:	f403 01c0 	and.w	r1, r3, #6291456	; 0x600000
 80015ce:	3a01      	subs	r2, #1
 80015d0:	ebb1 5f42 	cmp.w	r1, r2, lsl #21
 80015d4:	d107      	bne.n	80015e6 <HAL_RCC_OscConfig+0x3f6>
 80015d6:	6c2a      	ldr	r2, [r5, #64]	; 0x40
 80015d8:	0852      	lsrs	r2, r2, #1
 80015da:	f003 63c0 	and.w	r3, r3, #100663296	; 0x6000000
 80015de:	3a01      	subs	r2, #1
 80015e0:	ebb3 6f42 	cmp.w	r3, r2, lsl #25
 80015e4:	d04a      	beq.n	800167c <HAL_RCC_OscConfig+0x48c>
 80015e6:	2e0c      	cmp	r6, #12
 80015e8:	f43f ae06 	beq.w	80011f8 <HAL_RCC_OscConfig+0x8>
 80015ec:	6823      	ldr	r3, [r4, #0]
 80015ee:	015a      	lsls	r2, r3, #5
 80015f0:	f53f ae02 	bmi.w	80011f8 <HAL_RCC_OscConfig+0x8>
 80015f4:	6823      	ldr	r3, [r4, #0]
 80015f6:	00db      	lsls	r3, r3, #3
 80015f8:	f53f adfe 	bmi.w	80011f8 <HAL_RCC_OscConfig+0x8>
 80015fc:	6823      	ldr	r3, [r4, #0]
 80015fe:	f023 7380 	bic.w	r3, r3, #16777216	; 0x1000000
 8001602:	6023      	str	r3, [r4, #0]
 8001604:	f7ff fbce 	bl	8000da4 <HAL_GetTick>
 8001608:	4606      	mov	r6, r0
 800160a:	6823      	ldr	r3, [r4, #0]
 800160c:	019f      	lsls	r7, r3, #6
 800160e:	d42f      	bmi.n	8001670 <HAL_RCC_OscConfig+0x480>
 8001610:	68e2      	ldr	r2, [r4, #12]
 8001612:	4b39      	ldr	r3, [pc, #228]	; (80016f8 <HAL_RCC_OscConfig+0x508>)
 8001614:	4013      	ands	r3, r2
 8001616:	6aea      	ldr	r2, [r5, #44]	; 0x2c
 8001618:	4313      	orrs	r3, r2
 800161a:	6b6a      	ldr	r2, [r5, #52]	; 0x34
 800161c:	ea43 2302 	orr.w	r3, r3, r2, lsl #8
 8001620:	6b2a      	ldr	r2, [r5, #48]	; 0x30
 8001622:	3a01      	subs	r2, #1
 8001624:	ea43 1302 	orr.w	r3, r3, r2, lsl #4
 8001628:	6baa      	ldr	r2, [r5, #56]	; 0x38
 800162a:	0912      	lsrs	r2, r2, #4
 800162c:	ea43 4342 	orr.w	r3, r3, r2, lsl #17
 8001630:	6bea      	ldr	r2, [r5, #60]	; 0x3c
 8001632:	0852      	lsrs	r2, r2, #1
 8001634:	3a01      	subs	r2, #1
 8001636:	ea43 5342 	orr.w	r3, r3, r2, lsl #21
 800163a:	6c2a      	ldr	r2, [r5, #64]	; 0x40
 800163c:	0852      	lsrs	r2, r2, #1
 800163e:	3a01      	subs	r2, #1
 8001640:	ea43 6342 	orr.w	r3, r3, r2, lsl #25
 8001644:	60e3      	str	r3, [r4, #12]
 8001646:	6823      	ldr	r3, [r4, #0]
 8001648:	f043 7380 	orr.w	r3, r3, #16777216	; 0x1000000
 800164c:	6023      	str	r3, [r4, #0]
 800164e:	68e3      	ldr	r3, [r4, #12]
 8001650:	f043 7380 	orr.w	r3, r3, #16777216	; 0x1000000
 8001654:	60e3      	str	r3, [r4, #12]
 8001656:	f7ff fba5 	bl	8000da4 <HAL_GetTick>
 800165a:	4605      	mov	r5, r0
 800165c:	6823      	ldr	r3, [r4, #0]
 800165e:	0198      	lsls	r0, r3, #6
 8001660:	f53f ae29 	bmi.w	80012b6 <HAL_RCC_OscConfig+0xc6>
 8001664:	f7ff fb9e 	bl	8000da4 <HAL_GetTick>
 8001668:	1b40      	subs	r0, r0, r5
 800166a:	2802      	cmp	r0, #2
 800166c:	d9f6      	bls.n	800165c <HAL_RCC_OscConfig+0x46c>
 800166e:	e65f      	b.n	8001330 <HAL_RCC_OscConfig+0x140>
 8001670:	f7ff fb98 	bl	8000da4 <HAL_GetTick>
 8001674:	1b80      	subs	r0, r0, r6
 8001676:	2802      	cmp	r0, #2
 8001678:	d9c7      	bls.n	800160a <HAL_RCC_OscConfig+0x41a>
 800167a:	e659      	b.n	8001330 <HAL_RCC_OscConfig+0x140>
 800167c:	6823      	ldr	r3, [r4, #0]
 800167e:	0199      	lsls	r1, r3, #6
 8001680:	f53f ae19 	bmi.w	80012b6 <HAL_RCC_OscConfig+0xc6>
 8001684:	6823      	ldr	r3, [r4, #0]
 8001686:	f043 7380 	orr.w	r3, r3, #16777216	; 0x1000000
 800168a:	6023      	str	r3, [r4, #0]
 800168c:	68e3      	ldr	r3, [r4, #12]
 800168e:	f043 7380 	orr.w	r3, r3, #16777216	; 0x1000000
 8001692:	60e3      	str	r3, [r4, #12]
 8001694:	f7ff fb86 	bl	8000da4 <HAL_GetTick>
 8001698:	4605      	mov	r5, r0
 800169a:	6823      	ldr	r3, [r4, #0]
 800169c:	019a      	lsls	r2, r3, #6
 800169e:	f53f ae0a 	bmi.w	80012b6 <HAL_RCC_OscConfig+0xc6>
 80016a2:	f7ff fb7f 	bl	8000da4 <HAL_GetTick>
 80016a6:	1b40      	subs	r0, r0, r5
 80016a8:	2802      	cmp	r0, #2
 80016aa:	d9f6      	bls.n	800169a <HAL_RCC_OscConfig+0x4aa>
 80016ac:	e640      	b.n	8001330 <HAL_RCC_OscConfig+0x140>
 80016ae:	2e0c      	cmp	r6, #12
 80016b0:	f43f ada2 	beq.w	80011f8 <HAL_RCC_OscConfig+0x8>
 80016b4:	6823      	ldr	r3, [r4, #0]
 80016b6:	f023 7380 	bic.w	r3, r3, #16777216	; 0x1000000
 80016ba:	6023      	str	r3, [r4, #0]
 80016bc:	6823      	ldr	r3, [r4, #0]
 80016be:	f013 5f20 	tst.w	r3, #671088640	; 0x28000000
 80016c2:	bf02      	ittt	eq
 80016c4:	68e3      	ldreq	r3, [r4, #12]
 80016c6:	f023 0303 	biceq.w	r3, r3, #3
 80016ca:	60e3      	streq	r3, [r4, #12]
 80016cc:	68e3      	ldr	r3, [r4, #12]
 80016ce:	f023 7388 	bic.w	r3, r3, #17825792	; 0x1100000
 80016d2:	f423 3380 	bic.w	r3, r3, #65536	; 0x10000
 80016d6:	60e3      	str	r3, [r4, #12]
 80016d8:	f7ff fb64 	bl	8000da4 <HAL_GetTick>
 80016dc:	4605      	mov	r5, r0
 80016de:	6823      	ldr	r3, [r4, #0]
 80016e0:	019b      	lsls	r3, r3, #6
 80016e2:	f57f ade8 	bpl.w	80012b6 <HAL_RCC_OscConfig+0xc6>
 80016e6:	f7ff fb5d 	bl	8000da4 <HAL_GetTick>
 80016ea:	1b40      	subs	r0, r0, r5
 80016ec:	2802      	cmp	r0, #2
 80016ee:	d9f6      	bls.n	80016de <HAL_RCC_OscConfig+0x4ee>
 80016f0:	e61e      	b.n	8001330 <HAL_RCC_OscConfig+0x140>
 80016f2:	bf00      	nop
 80016f4:	40007000 	.word	0x40007000
 80016f8:	f99d808c 	.word	0xf99d808c

080016fc <HAL_RCC_ClockConfig>:
 80016fc:	e92d 41f0 	stmdb	sp!, {r4, r5, r6, r7, r8, lr}
 8001700:	460d      	mov	r5, r1
 8001702:	4604      	mov	r4, r0
 8001704:	b910      	cbnz	r0, 800170c <HAL_RCC_ClockConfig+0x10>
 8001706:	2001      	movs	r0, #1
 8001708:	e8bd 81f0 	ldmia.w	sp!, {r4, r5, r6, r7, r8, pc}
 800170c:	4a40      	ldr	r2, [pc, #256]	; (8001810 <HAL_RCC_ClockConfig+0x114>)
 800170e:	6813      	ldr	r3, [r2, #0]
 8001710:	f003 0307 	and.w	r3, r3, #7
 8001714:	428b      	cmp	r3, r1
 8001716:	d32a      	bcc.n	800176e <HAL_RCC_ClockConfig+0x72>
 8001718:	6823      	ldr	r3, [r4, #0]
 800171a:	07d9      	lsls	r1, r3, #31
 800171c:	d432      	bmi.n	8001784 <HAL_RCC_ClockConfig+0x88>
 800171e:	6821      	ldr	r1, [r4, #0]
 8001720:	078a      	lsls	r2, r1, #30
 8001722:	d45b      	bmi.n	80017dc <HAL_RCC_ClockConfig+0xe0>
 8001724:	4a3a      	ldr	r2, [pc, #232]	; (8001810 <HAL_RCC_ClockConfig+0x114>)
 8001726:	6813      	ldr	r3, [r2, #0]
 8001728:	f003 0307 	and.w	r3, r3, #7
 800172c:	42ab      	cmp	r3, r5
 800172e:	d85d      	bhi.n	80017ec <HAL_RCC_ClockConfig+0xf0>
 8001730:	f011 0f04 	tst.w	r1, #4
 8001734:	4d37      	ldr	r5, [pc, #220]	; (8001814 <HAL_RCC_ClockConfig+0x118>)
 8001736:	d164      	bne.n	8001802 <HAL_RCC_ClockConfig+0x106>
 8001738:	070b      	lsls	r3, r1, #28
 800173a:	d506      	bpl.n	800174a <HAL_RCC_ClockConfig+0x4e>
 800173c:	68ab      	ldr	r3, [r5, #8]
 800173e:	6922      	ldr	r2, [r4, #16]
 8001740:	f423 5360 	bic.w	r3, r3, #14336	; 0x3800
 8001744:	ea43 03c2 	orr.w	r3, r3, r2, lsl #3
 8001748:	60ab      	str	r3, [r5, #8]
 800174a:	f7ff fd03 	bl	8001154 <HAL_RCC_GetSysClockFreq>
 800174e:	68ab      	ldr	r3, [r5, #8]
 8001750:	4a31      	ldr	r2, [pc, #196]	; (8001818 <HAL_RCC_ClockConfig+0x11c>)
 8001752:	f3c3 1303 	ubfx	r3, r3, #4, #4
 8001756:	e8bd 41f0 	ldmia.w	sp!, {r4, r5, r6, r7, r8, lr}
 800175a:	5cd3      	ldrb	r3, [r2, r3]
 800175c:	f003 031f 	and.w	r3, r3, #31
 8001760:	40d8      	lsrs	r0, r3
 8001762:	4b2e      	ldr	r3, [pc, #184]	; (800181c <HAL_RCC_ClockConfig+0x120>)
 8001764:	6018      	str	r0, [r3, #0]
 8001766:	4b2e      	ldr	r3, [pc, #184]	; (8001820 <HAL_RCC_ClockConfig+0x124>)
 8001768:	6818      	ldr	r0, [r3, #0]
 800176a:	f7ff bad9 	b.w	8000d20 <HAL_InitTick>
 800176e:	6813      	ldr	r3, [r2, #0]
 8001770:	f023 0307 	bic.w	r3, r3, #7
 8001774:	430b      	orrs	r3, r1
 8001776:	6013      	str	r3, [r2, #0]
 8001778:	6813      	ldr	r3, [r2, #0]
 800177a:	f003 0307 	and.w	r3, r3, #7
 800177e:	428b      	cmp	r3, r1
 8001780:	d1c1      	bne.n	8001706 <HAL_RCC_ClockConfig+0xa>
 8001782:	e7c9      	b.n	8001718 <HAL_RCC_ClockConfig+0x1c>
 8001784:	6862      	ldr	r2, [r4, #4]
 8001786:	4e23      	ldr	r6, [pc, #140]	; (8001814 <HAL_RCC_ClockConfig+0x118>)
 8001788:	2a03      	cmp	r2, #3
 800178a:	6833      	ldr	r3, [r6, #0]
 800178c:	d11a      	bne.n	80017c4 <HAL_RCC_ClockConfig+0xc8>
 800178e:	f013 7f00 	tst.w	r3, #33554432	; 0x2000000
 8001792:	d0b8      	beq.n	8001706 <HAL_RCC_ClockConfig+0xa>
 8001794:	68b3      	ldr	r3, [r6, #8]
 8001796:	f023 0303 	bic.w	r3, r3, #3
 800179a:	4313      	orrs	r3, r2
 800179c:	60b3      	str	r3, [r6, #8]
 800179e:	f7ff fb01 	bl	8000da4 <HAL_GetTick>
 80017a2:	f241 3888 	movw	r8, #5000	; 0x1388
 80017a6:	4607      	mov	r7, r0
 80017a8:	68b3      	ldr	r3, [r6, #8]
 80017aa:	6862      	ldr	r2, [r4, #4]
 80017ac:	f003 030c 	and.w	r3, r3, #12
 80017b0:	ebb3 0f82 	cmp.w	r3, r2, lsl #2
 80017b4:	d0b3      	beq.n	800171e <HAL_RCC_ClockConfig+0x22>
 80017b6:	f7ff faf5 	bl	8000da4 <HAL_GetTick>
 80017ba:	1bc0      	subs	r0, r0, r7
 80017bc:	4540      	cmp	r0, r8
 80017be:	d9f3      	bls.n	80017a8 <HAL_RCC_ClockConfig+0xac>
 80017c0:	2003      	movs	r0, #3
 80017c2:	e7a1      	b.n	8001708 <HAL_RCC_ClockConfig+0xc>
 80017c4:	2a02      	cmp	r2, #2
 80017c6:	d102      	bne.n	80017ce <HAL_RCC_ClockConfig+0xd2>
 80017c8:	f413 3f00 	tst.w	r3, #131072	; 0x20000
 80017cc:	e7e1      	b.n	8001792 <HAL_RCC_ClockConfig+0x96>
 80017ce:	b912      	cbnz	r2, 80017d6 <HAL_RCC_ClockConfig+0xda>
 80017d0:	f013 0f02 	tst.w	r3, #2
 80017d4:	e7dd      	b.n	8001792 <HAL_RCC_ClockConfig+0x96>
 80017d6:	f413 6f80 	tst.w	r3, #1024	; 0x400
 80017da:	e7da      	b.n	8001792 <HAL_RCC_ClockConfig+0x96>
 80017dc:	4a0d      	ldr	r2, [pc, #52]	; (8001814 <HAL_RCC_ClockConfig+0x118>)
 80017de:	68a0      	ldr	r0, [r4, #8]
 80017e0:	6893      	ldr	r3, [r2, #8]
 80017e2:	f023 03f0 	bic.w	r3, r3, #240	; 0xf0
 80017e6:	4303      	orrs	r3, r0
 80017e8:	6093      	str	r3, [r2, #8]
 80017ea:	e79b      	b.n	8001724 <HAL_RCC_ClockConfig+0x28>
 80017ec:	6813      	ldr	r3, [r2, #0]
 80017ee:	f023 0307 	bic.w	r3, r3, #7
 80017f2:	432b      	orrs	r3, r5
 80017f4:	6013      	str	r3, [r2, #0]
 80017f6:	6813      	ldr	r3, [r2, #0]
 80017f8:	f003 0307 	and.w	r3, r3, #7
 80017fc:	42ab      	cmp	r3, r5
 80017fe:	d182      	bne.n	8001706 <HAL_RCC_ClockConfig+0xa>
 8001800:	e796      	b.n	8001730 <HAL_RCC_ClockConfig+0x34>
 8001802:	68ab      	ldr	r3, [r5, #8]
 8001804:	68e2      	ldr	r2, [r4, #12]
 8001806:	f423 63e0 	bic.w	r3, r3, #1792	; 0x700
 800180a:	4313      	orrs	r3, r2
 800180c:	60ab      	str	r3, [r5, #8]
 800180e:	e793      	b.n	8001738 <HAL_RCC_ClockConfig+0x3c>
 8001810:	40022000 	.word	0x40022000
 8001814:	40021000 	.word	0x40021000
 8001818:	08002810 	.word	0x08002810
 800181c:	20000020 	.word	0x20000020
 8001820:	20000028 	.word	0x20000028

08001824 <__errno>:
 8001824:	4b01      	ldr	r3, [pc, #4]	; (800182c <__errno+0x8>)
 8001826:	6818      	ldr	r0, [r3, #0]
 8001828:	4770      	bx	lr
 800182a:	bf00      	nop
 800182c:	2000002c 	.word	0x2000002c

08001830 <__libc_init_array>:
 8001830:	b570      	push	{r4, r5, r6, lr}
 8001832:	4d0d      	ldr	r5, [pc, #52]	; (8001868 <__libc_init_array+0x38>)
 8001834:	4c0d      	ldr	r4, [pc, #52]	; (800186c <__libc_init_array+0x3c>)
 8001836:	1b64      	subs	r4, r4, r5
 8001838:	10a4      	asrs	r4, r4, #2
 800183a:	2600      	movs	r6, #0
 800183c:	42a6      	cmp	r6, r4
 800183e:	d109      	bne.n	8001854 <__libc_init_array+0x24>
 8001840:	4d0b      	ldr	r5, [pc, #44]	; (8001870 <__libc_init_array+0x40>)
 8001842:	4c0c      	ldr	r4, [pc, #48]	; (8001874 <__libc_init_array+0x44>)
 8001844:	f000 ffd6 	bl	80027f4 <_init>
 8001848:	1b64      	subs	r4, r4, r5
 800184a:	10a4      	asrs	r4, r4, #2
 800184c:	2600      	movs	r6, #0
 800184e:	42a6      	cmp	r6, r4
 8001850:	d105      	bne.n	800185e <__libc_init_array+0x2e>
 8001852:	bd70      	pop	{r4, r5, r6, pc}
 8001854:	f855 3b04 	ldr.w	r3, [r5], #4
 8001858:	4798      	blx	r3
 800185a:	3601      	adds	r6, #1
 800185c:	e7ee      	b.n	800183c <__libc_init_array+0xc>
 800185e:	f855 3b04 	ldr.w	r3, [r5], #4
 8001862:	4798      	blx	r3
 8001864:	3601      	adds	r6, #1
 8001866:	e7f2      	b.n	800184e <__libc_init_array+0x1e>
 8001868:	08002898 	.word	0x08002898
 800186c:	08002898 	.word	0x08002898
 8001870:	08002898 	.word	0x08002898
 8001874:	0800289c 	.word	0x0800289c

08001878 <memset>:
 8001878:	4402      	add	r2, r0
 800187a:	4603      	mov	r3, r0
 800187c:	4293      	cmp	r3, r2
 800187e:	d100      	bne.n	8001882 <memset+0xa>
 8001880:	4770      	bx	lr
 8001882:	f803 1b01 	strb.w	r1, [r3], #1
 8001886:	e7f9      	b.n	800187c <memset+0x4>

08001888 <pow>:
 8001888:	e92d 43f8 	stmdb	sp!, {r3, r4, r5, r6, r7, r8, r9, lr}
 800188c:	ec59 8b10 	vmov	r8, r9, d0
 8001890:	ec57 6b11 	vmov	r6, r7, d1
 8001894:	f000 f8a8 	bl	80019e8 <__ieee754_pow>
 8001898:	4b4e      	ldr	r3, [pc, #312]	; (80019d4 <pow+0x14c>)
 800189a:	f993 3000 	ldrsb.w	r3, [r3]
 800189e:	3301      	adds	r3, #1
 80018a0:	ec55 4b10 	vmov	r4, r5, d0
 80018a4:	d015      	beq.n	80018d2 <pow+0x4a>
 80018a6:	4632      	mov	r2, r6
 80018a8:	463b      	mov	r3, r7
 80018aa:	4630      	mov	r0, r6
 80018ac:	4639      	mov	r1, r7
 80018ae:	f7ff f8e1 	bl	8000a74 <__aeabi_dcmpun>
 80018b2:	b970      	cbnz	r0, 80018d2 <pow+0x4a>
 80018b4:	4642      	mov	r2, r8
 80018b6:	464b      	mov	r3, r9
 80018b8:	4640      	mov	r0, r8
 80018ba:	4649      	mov	r1, r9
 80018bc:	f7ff f8da 	bl	8000a74 <__aeabi_dcmpun>
 80018c0:	2200      	movs	r2, #0
 80018c2:	2300      	movs	r3, #0
 80018c4:	b148      	cbz	r0, 80018da <pow+0x52>
 80018c6:	4630      	mov	r0, r6
 80018c8:	4639      	mov	r1, r7
 80018ca:	f7ff f8a1 	bl	8000a10 <__aeabi_dcmpeq>
 80018ce:	2800      	cmp	r0, #0
 80018d0:	d17d      	bne.n	80019ce <pow+0x146>
 80018d2:	ec45 4b10 	vmov	d0, r4, r5
 80018d6:	e8bd 83f8 	ldmia.w	sp!, {r3, r4, r5, r6, r7, r8, r9, pc}
 80018da:	4640      	mov	r0, r8
 80018dc:	4649      	mov	r1, r9
 80018de:	f7ff f897 	bl	8000a10 <__aeabi_dcmpeq>
 80018e2:	b1e0      	cbz	r0, 800191e <pow+0x96>
 80018e4:	2200      	movs	r2, #0
 80018e6:	2300      	movs	r3, #0
 80018e8:	4630      	mov	r0, r6
 80018ea:	4639      	mov	r1, r7
 80018ec:	f7ff f890 	bl	8000a10 <__aeabi_dcmpeq>
 80018f0:	2800      	cmp	r0, #0
 80018f2:	d16c      	bne.n	80019ce <pow+0x146>
 80018f4:	ec47 6b10 	vmov	d0, r6, r7
 80018f8:	f000 fe55 	bl	80025a6 <finite>
 80018fc:	2800      	cmp	r0, #0
 80018fe:	d0e8      	beq.n	80018d2 <pow+0x4a>
 8001900:	2200      	movs	r2, #0
 8001902:	2300      	movs	r3, #0
 8001904:	4630      	mov	r0, r6
 8001906:	4639      	mov	r1, r7
 8001908:	f7ff f88c 	bl	8000a24 <__aeabi_dcmplt>
 800190c:	2800      	cmp	r0, #0
 800190e:	d0e0      	beq.n	80018d2 <pow+0x4a>
 8001910:	f7ff ff88 	bl	8001824 <__errno>
 8001914:	2321      	movs	r3, #33	; 0x21
 8001916:	6003      	str	r3, [r0, #0]
 8001918:	2400      	movs	r4, #0
 800191a:	4d2f      	ldr	r5, [pc, #188]	; (80019d8 <pow+0x150>)
 800191c:	e7d9      	b.n	80018d2 <pow+0x4a>
 800191e:	ec45 4b10 	vmov	d0, r4, r5
 8001922:	f000 fe40 	bl	80025a6 <finite>
 8001926:	bbb8      	cbnz	r0, 8001998 <pow+0x110>
 8001928:	ec49 8b10 	vmov	d0, r8, r9
 800192c:	f000 fe3b 	bl	80025a6 <finite>
 8001930:	b390      	cbz	r0, 8001998 <pow+0x110>
 8001932:	ec47 6b10 	vmov	d0, r6, r7
 8001936:	f000 fe36 	bl	80025a6 <finite>
 800193a:	b368      	cbz	r0, 8001998 <pow+0x110>
 800193c:	4622      	mov	r2, r4
 800193e:	462b      	mov	r3, r5
 8001940:	4620      	mov	r0, r4
 8001942:	4629      	mov	r1, r5
 8001944:	f7ff f896 	bl	8000a74 <__aeabi_dcmpun>
 8001948:	b160      	cbz	r0, 8001964 <pow+0xdc>
 800194a:	f7ff ff6b 	bl	8001824 <__errno>
 800194e:	2321      	movs	r3, #33	; 0x21
 8001950:	6003      	str	r3, [r0, #0]
 8001952:	2200      	movs	r2, #0
 8001954:	2300      	movs	r3, #0
 8001956:	4610      	mov	r0, r2
 8001958:	4619      	mov	r1, r3
 800195a:	f7fe ff1b 	bl	8000794 <__aeabi_ddiv>
 800195e:	4604      	mov	r4, r0
 8001960:	460d      	mov	r5, r1
 8001962:	e7b6      	b.n	80018d2 <pow+0x4a>
 8001964:	f7ff ff5e 	bl	8001824 <__errno>
 8001968:	2322      	movs	r3, #34	; 0x22
 800196a:	6003      	str	r3, [r0, #0]
 800196c:	2200      	movs	r2, #0
 800196e:	2300      	movs	r3, #0
 8001970:	4640      	mov	r0, r8
 8001972:	4649      	mov	r1, r9
 8001974:	f7ff f856 	bl	8000a24 <__aeabi_dcmplt>
 8001978:	2400      	movs	r4, #0
 800197a:	b158      	cbz	r0, 8001994 <pow+0x10c>
 800197c:	ec47 6b10 	vmov	d0, r6, r7
 8001980:	f000 fe26 	bl	80025d0 <rint>
 8001984:	4632      	mov	r2, r6
 8001986:	ec51 0b10 	vmov	r0, r1, d0
 800198a:	463b      	mov	r3, r7
 800198c:	f7ff f840 	bl	8000a10 <__aeabi_dcmpeq>
 8001990:	2800      	cmp	r0, #0
 8001992:	d0c2      	beq.n	800191a <pow+0x92>
 8001994:	4d11      	ldr	r5, [pc, #68]	; (80019dc <pow+0x154>)
 8001996:	e79c      	b.n	80018d2 <pow+0x4a>
 8001998:	2200      	movs	r2, #0
 800199a:	2300      	movs	r3, #0
 800199c:	4620      	mov	r0, r4
 800199e:	4629      	mov	r1, r5
 80019a0:	f7ff f836 	bl	8000a10 <__aeabi_dcmpeq>
 80019a4:	2800      	cmp	r0, #0
 80019a6:	d094      	beq.n	80018d2 <pow+0x4a>
 80019a8:	ec49 8b10 	vmov	d0, r8, r9
 80019ac:	f000 fdfb 	bl	80025a6 <finite>
 80019b0:	2800      	cmp	r0, #0
 80019b2:	d08e      	beq.n	80018d2 <pow+0x4a>
 80019b4:	ec47 6b10 	vmov	d0, r6, r7
 80019b8:	f000 fdf5 	bl	80025a6 <finite>
 80019bc:	2800      	cmp	r0, #0
 80019be:	d088      	beq.n	80018d2 <pow+0x4a>
 80019c0:	f7ff ff30 	bl	8001824 <__errno>
 80019c4:	2322      	movs	r3, #34	; 0x22
 80019c6:	6003      	str	r3, [r0, #0]
 80019c8:	2400      	movs	r4, #0
 80019ca:	2500      	movs	r5, #0
 80019cc:	e781      	b.n	80018d2 <pow+0x4a>
 80019ce:	4d04      	ldr	r5, [pc, #16]	; (80019e0 <pow+0x158>)
 80019d0:	2400      	movs	r4, #0
 80019d2:	e77e      	b.n	80018d2 <pow+0x4a>
 80019d4:	20000090 	.word	0x20000090
 80019d8:	fff00000 	.word	0xfff00000
 80019dc:	7ff00000 	.word	0x7ff00000
 80019e0:	3ff00000 	.word	0x3ff00000
 80019e4:	00000000 	.word	0x00000000

080019e8 <__ieee754_pow>:
 80019e8:	e92d 4ff0 	stmdb	sp!, {r4, r5, r6, r7, r8, r9, sl, fp, lr}
 80019ec:	ed2d 8b06 	vpush	{d8-d10}
 80019f0:	b08d      	sub	sp, #52	; 0x34
 80019f2:	ed8d 1b02 	vstr	d1, [sp, #8]
 80019f6:	e9dd 0702 	ldrd	r0, r7, [sp, #8]
 80019fa:	f027 4600 	bic.w	r6, r7, #2147483648	; 0x80000000
 80019fe:	ea56 0100 	orrs.w	r1, r6, r0
 8001a02:	ec53 2b10 	vmov	r2, r3, d0
 8001a06:	f000 84d1 	beq.w	80023ac <__ieee754_pow+0x9c4>
 8001a0a:	497f      	ldr	r1, [pc, #508]	; (8001c08 <__ieee754_pow+0x220>)
 8001a0c:	f023 4400 	bic.w	r4, r3, #2147483648	; 0x80000000
 8001a10:	428c      	cmp	r4, r1
 8001a12:	ee10 8a10 	vmov	r8, s0
 8001a16:	4699      	mov	r9, r3
 8001a18:	dc09      	bgt.n	8001a2e <__ieee754_pow+0x46>
 8001a1a:	d103      	bne.n	8001a24 <__ieee754_pow+0x3c>
 8001a1c:	b97a      	cbnz	r2, 8001a3e <__ieee754_pow+0x56>
 8001a1e:	42a6      	cmp	r6, r4
 8001a20:	dd02      	ble.n	8001a28 <__ieee754_pow+0x40>
 8001a22:	e00c      	b.n	8001a3e <__ieee754_pow+0x56>
 8001a24:	428e      	cmp	r6, r1
 8001a26:	dc02      	bgt.n	8001a2e <__ieee754_pow+0x46>
 8001a28:	428e      	cmp	r6, r1
 8001a2a:	d110      	bne.n	8001a4e <__ieee754_pow+0x66>
 8001a2c:	b178      	cbz	r0, 8001a4e <__ieee754_pow+0x66>
 8001a2e:	f104 4440 	add.w	r4, r4, #3221225472	; 0xc0000000
 8001a32:	f504 1480 	add.w	r4, r4, #1048576	; 0x100000
 8001a36:	ea54 0308 	orrs.w	r3, r4, r8
 8001a3a:	f000 84b7 	beq.w	80023ac <__ieee754_pow+0x9c4>
 8001a3e:	4873      	ldr	r0, [pc, #460]	; (8001c0c <__ieee754_pow+0x224>)
 8001a40:	b00d      	add	sp, #52	; 0x34
 8001a42:	ecbd 8b06 	vpop	{d8-d10}
 8001a46:	e8bd 4ff0 	ldmia.w	sp!, {r4, r5, r6, r7, r8, r9, sl, fp, lr}
 8001a4a:	f000 bdb9 	b.w	80025c0 <nan>
 8001a4e:	f1b9 0f00 	cmp.w	r9, #0
 8001a52:	da36      	bge.n	8001ac2 <__ieee754_pow+0xda>
 8001a54:	496e      	ldr	r1, [pc, #440]	; (8001c10 <__ieee754_pow+0x228>)
 8001a56:	428e      	cmp	r6, r1
 8001a58:	dc51      	bgt.n	8001afe <__ieee754_pow+0x116>
 8001a5a:	f1a1 7154 	sub.w	r1, r1, #55574528	; 0x3500000
 8001a5e:	428e      	cmp	r6, r1
 8001a60:	f340 84af 	ble.w	80023c2 <__ieee754_pow+0x9da>
 8001a64:	1531      	asrs	r1, r6, #20
 8001a66:	f2a1 31ff 	subw	r1, r1, #1023	; 0x3ff
 8001a6a:	2914      	cmp	r1, #20
 8001a6c:	dd0f      	ble.n	8001a8e <__ieee754_pow+0xa6>
 8001a6e:	f1c1 0134 	rsb	r1, r1, #52	; 0x34
 8001a72:	fa20 fc01 	lsr.w	ip, r0, r1
 8001a76:	fa0c f101 	lsl.w	r1, ip, r1
 8001a7a:	4281      	cmp	r1, r0
 8001a7c:	f040 84a1 	bne.w	80023c2 <__ieee754_pow+0x9da>
 8001a80:	f00c 0c01 	and.w	ip, ip, #1
 8001a84:	f1cc 0102 	rsb	r1, ip, #2
 8001a88:	9100      	str	r1, [sp, #0]
 8001a8a:	b180      	cbz	r0, 8001aae <__ieee754_pow+0xc6>
 8001a8c:	e059      	b.n	8001b42 <__ieee754_pow+0x15a>
 8001a8e:	2800      	cmp	r0, #0
 8001a90:	d155      	bne.n	8001b3e <__ieee754_pow+0x156>
 8001a92:	f1c1 0114 	rsb	r1, r1, #20
 8001a96:	fa46 fc01 	asr.w	ip, r6, r1
 8001a9a:	fa0c f101 	lsl.w	r1, ip, r1
 8001a9e:	42b1      	cmp	r1, r6
 8001aa0:	f040 848c 	bne.w	80023bc <__ieee754_pow+0x9d4>
 8001aa4:	f00c 0c01 	and.w	ip, ip, #1
 8001aa8:	f1cc 0102 	rsb	r1, ip, #2
 8001aac:	9100      	str	r1, [sp, #0]
 8001aae:	4959      	ldr	r1, [pc, #356]	; (8001c14 <__ieee754_pow+0x22c>)
 8001ab0:	428e      	cmp	r6, r1
 8001ab2:	d12d      	bne.n	8001b10 <__ieee754_pow+0x128>
 8001ab4:	2f00      	cmp	r7, #0
 8001ab6:	da79      	bge.n	8001bac <__ieee754_pow+0x1c4>
 8001ab8:	4956      	ldr	r1, [pc, #344]	; (8001c14 <__ieee754_pow+0x22c>)
 8001aba:	2000      	movs	r0, #0
 8001abc:	f7fe fe6a 	bl	8000794 <__aeabi_ddiv>
 8001ac0:	e016      	b.n	8001af0 <__ieee754_pow+0x108>
 8001ac2:	2100      	movs	r1, #0
 8001ac4:	9100      	str	r1, [sp, #0]
 8001ac6:	2800      	cmp	r0, #0
 8001ac8:	d13b      	bne.n	8001b42 <__ieee754_pow+0x15a>
 8001aca:	494f      	ldr	r1, [pc, #316]	; (8001c08 <__ieee754_pow+0x220>)
 8001acc:	428e      	cmp	r6, r1
 8001ace:	d1ee      	bne.n	8001aae <__ieee754_pow+0xc6>
 8001ad0:	f104 4340 	add.w	r3, r4, #3221225472	; 0xc0000000
 8001ad4:	f503 1380 	add.w	r3, r3, #1048576	; 0x100000
 8001ad8:	ea53 0308 	orrs.w	r3, r3, r8
 8001adc:	f000 8466 	beq.w	80023ac <__ieee754_pow+0x9c4>
 8001ae0:	4b4d      	ldr	r3, [pc, #308]	; (8001c18 <__ieee754_pow+0x230>)
 8001ae2:	429c      	cmp	r4, r3
 8001ae4:	dd0d      	ble.n	8001b02 <__ieee754_pow+0x11a>
 8001ae6:	2f00      	cmp	r7, #0
 8001ae8:	f280 8464 	bge.w	80023b4 <__ieee754_pow+0x9cc>
 8001aec:	2000      	movs	r0, #0
 8001aee:	2100      	movs	r1, #0
 8001af0:	ec41 0b10 	vmov	d0, r0, r1
 8001af4:	b00d      	add	sp, #52	; 0x34
 8001af6:	ecbd 8b06 	vpop	{d8-d10}
 8001afa:	e8bd 8ff0 	ldmia.w	sp!, {r4, r5, r6, r7, r8, r9, sl, fp, pc}
 8001afe:	2102      	movs	r1, #2
 8001b00:	e7e0      	b.n	8001ac4 <__ieee754_pow+0xdc>
 8001b02:	2f00      	cmp	r7, #0
 8001b04:	daf2      	bge.n	8001aec <__ieee754_pow+0x104>
 8001b06:	e9dd 0302 	ldrd	r0, r3, [sp, #8]
 8001b0a:	f103 4100 	add.w	r1, r3, #2147483648	; 0x80000000
 8001b0e:	e7ef      	b.n	8001af0 <__ieee754_pow+0x108>
 8001b10:	f1b7 4f80 	cmp.w	r7, #1073741824	; 0x40000000
 8001b14:	d104      	bne.n	8001b20 <__ieee754_pow+0x138>
 8001b16:	4610      	mov	r0, r2
 8001b18:	4619      	mov	r1, r3
 8001b1a:	f7fe fd11 	bl	8000540 <__aeabi_dmul>
 8001b1e:	e7e7      	b.n	8001af0 <__ieee754_pow+0x108>
 8001b20:	493e      	ldr	r1, [pc, #248]	; (8001c1c <__ieee754_pow+0x234>)
 8001b22:	428f      	cmp	r7, r1
 8001b24:	d10d      	bne.n	8001b42 <__ieee754_pow+0x15a>
 8001b26:	f1b9 0f00 	cmp.w	r9, #0
 8001b2a:	db0a      	blt.n	8001b42 <__ieee754_pow+0x15a>
 8001b2c:	ec43 2b10 	vmov	d0, r2, r3
 8001b30:	b00d      	add	sp, #52	; 0x34
 8001b32:	ecbd 8b06 	vpop	{d8-d10}
 8001b36:	e8bd 4ff0 	ldmia.w	sp!, {r4, r5, r6, r7, r8, r9, sl, fp, lr}
 8001b3a:	f000 bc77 	b.w	800242c <__ieee754_sqrt>
 8001b3e:	2100      	movs	r1, #0
 8001b40:	9100      	str	r1, [sp, #0]
 8001b42:	ec43 2b10 	vmov	d0, r2, r3
 8001b46:	e9cd 2304 	strd	r2, r3, [sp, #16]
 8001b4a:	f000 fd23 	bl	8002594 <fabs>
 8001b4e:	e9dd 2304 	ldrd	r2, r3, [sp, #16]
 8001b52:	ec51 0b10 	vmov	r0, r1, d0
 8001b56:	f1b8 0f00 	cmp.w	r8, #0
 8001b5a:	d12a      	bne.n	8001bb2 <__ieee754_pow+0x1ca>
 8001b5c:	b12c      	cbz	r4, 8001b6a <__ieee754_pow+0x182>
 8001b5e:	f8df c0b4 	ldr.w	ip, [pc, #180]	; 8001c14 <__ieee754_pow+0x22c>
 8001b62:	f029 4e40 	bic.w	lr, r9, #3221225472	; 0xc0000000
 8001b66:	45e6      	cmp	lr, ip
 8001b68:	d123      	bne.n	8001bb2 <__ieee754_pow+0x1ca>
 8001b6a:	2f00      	cmp	r7, #0
 8001b6c:	da05      	bge.n	8001b7a <__ieee754_pow+0x192>
 8001b6e:	4602      	mov	r2, r0
 8001b70:	460b      	mov	r3, r1
 8001b72:	2000      	movs	r0, #0
 8001b74:	4927      	ldr	r1, [pc, #156]	; (8001c14 <__ieee754_pow+0x22c>)
 8001b76:	f7fe fe0d 	bl	8000794 <__aeabi_ddiv>
 8001b7a:	f1b9 0f00 	cmp.w	r9, #0
 8001b7e:	dab7      	bge.n	8001af0 <__ieee754_pow+0x108>
 8001b80:	9b00      	ldr	r3, [sp, #0]
 8001b82:	f104 4440 	add.w	r4, r4, #3221225472	; 0xc0000000
 8001b86:	f504 1480 	add.w	r4, r4, #1048576	; 0x100000
 8001b8a:	4323      	orrs	r3, r4
 8001b8c:	d108      	bne.n	8001ba0 <__ieee754_pow+0x1b8>
 8001b8e:	4602      	mov	r2, r0
 8001b90:	460b      	mov	r3, r1
 8001b92:	4610      	mov	r0, r2
 8001b94:	4619      	mov	r1, r3
 8001b96:	f7fe fb1b 	bl	80001d0 <__aeabi_dsub>
 8001b9a:	4602      	mov	r2, r0
 8001b9c:	460b      	mov	r3, r1
 8001b9e:	e78d      	b.n	8001abc <__ieee754_pow+0xd4>
 8001ba0:	9b00      	ldr	r3, [sp, #0]
 8001ba2:	2b01      	cmp	r3, #1
 8001ba4:	d1a4      	bne.n	8001af0 <__ieee754_pow+0x108>
 8001ba6:	4602      	mov	r2, r0
 8001ba8:	f101 4300 	add.w	r3, r1, #2147483648	; 0x80000000
 8001bac:	4610      	mov	r0, r2
 8001bae:	4619      	mov	r1, r3
 8001bb0:	e79e      	b.n	8001af0 <__ieee754_pow+0x108>
 8001bb2:	ea4f 7cd9 	mov.w	ip, r9, lsr #31
 8001bb6:	f10c 35ff 	add.w	r5, ip, #4294967295	; 0xffffffff
 8001bba:	950a      	str	r5, [sp, #40]	; 0x28
 8001bbc:	9d00      	ldr	r5, [sp, #0]
 8001bbe:	46ac      	mov	ip, r5
 8001bc0:	9d0a      	ldr	r5, [sp, #40]	; 0x28
 8001bc2:	ea5c 0505 	orrs.w	r5, ip, r5
 8001bc6:	d0e4      	beq.n	8001b92 <__ieee754_pow+0x1aa>
 8001bc8:	4b15      	ldr	r3, [pc, #84]	; (8001c20 <__ieee754_pow+0x238>)
 8001bca:	429e      	cmp	r6, r3
 8001bcc:	f340 80fc 	ble.w	8001dc8 <__ieee754_pow+0x3e0>
 8001bd0:	f103 7304 	add.w	r3, r3, #34603008	; 0x2100000
 8001bd4:	429e      	cmp	r6, r3
 8001bd6:	4b10      	ldr	r3, [pc, #64]	; (8001c18 <__ieee754_pow+0x230>)
 8001bd8:	dd07      	ble.n	8001bea <__ieee754_pow+0x202>
 8001bda:	429c      	cmp	r4, r3
 8001bdc:	dc0a      	bgt.n	8001bf4 <__ieee754_pow+0x20c>
 8001bde:	2f00      	cmp	r7, #0
 8001be0:	da84      	bge.n	8001aec <__ieee754_pow+0x104>
 8001be2:	a307      	add	r3, pc, #28	; (adr r3, 8001c00 <__ieee754_pow+0x218>)
 8001be4:	e9d3 2300 	ldrd	r2, r3, [r3]
 8001be8:	e795      	b.n	8001b16 <__ieee754_pow+0x12e>
 8001bea:	429c      	cmp	r4, r3
 8001bec:	dbf7      	blt.n	8001bde <__ieee754_pow+0x1f6>
 8001bee:	4b09      	ldr	r3, [pc, #36]	; (8001c14 <__ieee754_pow+0x22c>)
 8001bf0:	429c      	cmp	r4, r3
 8001bf2:	dd17      	ble.n	8001c24 <__ieee754_pow+0x23c>
 8001bf4:	2f00      	cmp	r7, #0
 8001bf6:	dcf4      	bgt.n	8001be2 <__ieee754_pow+0x1fa>
 8001bf8:	e778      	b.n	8001aec <__ieee754_pow+0x104>
 8001bfa:	bf00      	nop
 8001bfc:	f3af 8000 	nop.w
 8001c00:	8800759c 	.word	0x8800759c
 8001c04:	7e37e43c 	.word	0x7e37e43c
 8001c08:	7ff00000 	.word	0x7ff00000
 8001c0c:	08002850 	.word	0x08002850
 8001c10:	433fffff 	.word	0x433fffff
 8001c14:	3ff00000 	.word	0x3ff00000
 8001c18:	3fefffff 	.word	0x3fefffff
 8001c1c:	3fe00000 	.word	0x3fe00000
 8001c20:	41e00000 	.word	0x41e00000
 8001c24:	4b64      	ldr	r3, [pc, #400]	; (8001db8 <__ieee754_pow+0x3d0>)
 8001c26:	2200      	movs	r2, #0
 8001c28:	f7fe fad2 	bl	80001d0 <__aeabi_dsub>
 8001c2c:	a356      	add	r3, pc, #344	; (adr r3, 8001d88 <__ieee754_pow+0x3a0>)
 8001c2e:	e9d3 2300 	ldrd	r2, r3, [r3]
 8001c32:	4604      	mov	r4, r0
 8001c34:	460d      	mov	r5, r1
 8001c36:	f7fe fc83 	bl	8000540 <__aeabi_dmul>
 8001c3a:	a355      	add	r3, pc, #340	; (adr r3, 8001d90 <__ieee754_pow+0x3a8>)
 8001c3c:	e9d3 2300 	ldrd	r2, r3, [r3]
 8001c40:	4606      	mov	r6, r0
 8001c42:	460f      	mov	r7, r1
 8001c44:	4620      	mov	r0, r4
 8001c46:	4629      	mov	r1, r5
 8001c48:	f7fe fc7a 	bl	8000540 <__aeabi_dmul>
 8001c4c:	4b5b      	ldr	r3, [pc, #364]	; (8001dbc <__ieee754_pow+0x3d4>)
 8001c4e:	4682      	mov	sl, r0
 8001c50:	468b      	mov	fp, r1
 8001c52:	2200      	movs	r2, #0
 8001c54:	4620      	mov	r0, r4
 8001c56:	4629      	mov	r1, r5
 8001c58:	f7fe fc72 	bl	8000540 <__aeabi_dmul>
 8001c5c:	4602      	mov	r2, r0
 8001c5e:	460b      	mov	r3, r1
 8001c60:	a14d      	add	r1, pc, #308	; (adr r1, 8001d98 <__ieee754_pow+0x3b0>)
 8001c62:	e9d1 0100 	ldrd	r0, r1, [r1]
 8001c66:	f7fe fab3 	bl	80001d0 <__aeabi_dsub>
 8001c6a:	4622      	mov	r2, r4
 8001c6c:	462b      	mov	r3, r5
 8001c6e:	f7fe fc67 	bl	8000540 <__aeabi_dmul>
 8001c72:	4602      	mov	r2, r0
 8001c74:	460b      	mov	r3, r1
 8001c76:	2000      	movs	r0, #0
 8001c78:	4951      	ldr	r1, [pc, #324]	; (8001dc0 <__ieee754_pow+0x3d8>)
 8001c7a:	f7fe faa9 	bl	80001d0 <__aeabi_dsub>
 8001c7e:	4622      	mov	r2, r4
 8001c80:	4680      	mov	r8, r0
 8001c82:	4689      	mov	r9, r1
 8001c84:	462b      	mov	r3, r5
 8001c86:	4620      	mov	r0, r4
 8001c88:	4629      	mov	r1, r5
 8001c8a:	f7fe fc59 	bl	8000540 <__aeabi_dmul>
 8001c8e:	4602      	mov	r2, r0
 8001c90:	460b      	mov	r3, r1
 8001c92:	4640      	mov	r0, r8
 8001c94:	4649      	mov	r1, r9
 8001c96:	f7fe fc53 	bl	8000540 <__aeabi_dmul>
 8001c9a:	a341      	add	r3, pc, #260	; (adr r3, 8001da0 <__ieee754_pow+0x3b8>)
 8001c9c:	e9d3 2300 	ldrd	r2, r3, [r3]
 8001ca0:	f7fe fc4e 	bl	8000540 <__aeabi_dmul>
 8001ca4:	4602      	mov	r2, r0
 8001ca6:	460b      	mov	r3, r1
 8001ca8:	4650      	mov	r0, sl
 8001caa:	4659      	mov	r1, fp
 8001cac:	f7fe fa90 	bl	80001d0 <__aeabi_dsub>
 8001cb0:	4602      	mov	r2, r0
 8001cb2:	460b      	mov	r3, r1
 8001cb4:	4680      	mov	r8, r0
 8001cb6:	4689      	mov	r9, r1
 8001cb8:	4630      	mov	r0, r6
 8001cba:	4639      	mov	r1, r7
 8001cbc:	f7fe fa8a 	bl	80001d4 <__adddf3>
 8001cc0:	2400      	movs	r4, #0
 8001cc2:	4632      	mov	r2, r6
 8001cc4:	463b      	mov	r3, r7
 8001cc6:	4620      	mov	r0, r4
 8001cc8:	460d      	mov	r5, r1
 8001cca:	f7fe fa81 	bl	80001d0 <__aeabi_dsub>
 8001cce:	4602      	mov	r2, r0
 8001cd0:	460b      	mov	r3, r1
 8001cd2:	4640      	mov	r0, r8
 8001cd4:	4649      	mov	r1, r9
 8001cd6:	f7fe fa7b 	bl	80001d0 <__aeabi_dsub>
 8001cda:	9b00      	ldr	r3, [sp, #0]
 8001cdc:	9a0a      	ldr	r2, [sp, #40]	; 0x28
 8001cde:	3b01      	subs	r3, #1
 8001ce0:	4313      	orrs	r3, r2
 8001ce2:	4682      	mov	sl, r0
 8001ce4:	468b      	mov	fp, r1
 8001ce6:	f040 81f1 	bne.w	80020cc <__ieee754_pow+0x6e4>
 8001cea:	ed9f 7b2f 	vldr	d7, [pc, #188]	; 8001da8 <__ieee754_pow+0x3c0>
 8001cee:	eeb0 8a47 	vmov.f32	s16, s14
 8001cf2:	eef0 8a67 	vmov.f32	s17, s15
 8001cf6:	e9dd 6702 	ldrd	r6, r7, [sp, #8]
 8001cfa:	2600      	movs	r6, #0
 8001cfc:	4632      	mov	r2, r6
 8001cfe:	463b      	mov	r3, r7
 8001d00:	e9dd 0102 	ldrd	r0, r1, [sp, #8]
 8001d04:	f7fe fa64 	bl	80001d0 <__aeabi_dsub>
 8001d08:	4622      	mov	r2, r4
 8001d0a:	462b      	mov	r3, r5
 8001d0c:	f7fe fc18 	bl	8000540 <__aeabi_dmul>
 8001d10:	e9dd 2302 	ldrd	r2, r3, [sp, #8]
 8001d14:	4680      	mov	r8, r0
 8001d16:	4689      	mov	r9, r1
 8001d18:	4650      	mov	r0, sl
 8001d1a:	4659      	mov	r1, fp
 8001d1c:	f7fe fc10 	bl	8000540 <__aeabi_dmul>
 8001d20:	4602      	mov	r2, r0
 8001d22:	460b      	mov	r3, r1
 8001d24:	4640      	mov	r0, r8
 8001d26:	4649      	mov	r1, r9
 8001d28:	f7fe fa54 	bl	80001d4 <__adddf3>
 8001d2c:	4632      	mov	r2, r6
 8001d2e:	463b      	mov	r3, r7
 8001d30:	4680      	mov	r8, r0
 8001d32:	4689      	mov	r9, r1
 8001d34:	4620      	mov	r0, r4
 8001d36:	4629      	mov	r1, r5
 8001d38:	f7fe fc02 	bl	8000540 <__aeabi_dmul>
 8001d3c:	460b      	mov	r3, r1
 8001d3e:	4604      	mov	r4, r0
 8001d40:	460d      	mov	r5, r1
 8001d42:	4602      	mov	r2, r0
 8001d44:	4649      	mov	r1, r9
 8001d46:	4640      	mov	r0, r8
 8001d48:	f7fe fa44 	bl	80001d4 <__adddf3>
 8001d4c:	4b1d      	ldr	r3, [pc, #116]	; (8001dc4 <__ieee754_pow+0x3dc>)
 8001d4e:	4299      	cmp	r1, r3
 8001d50:	ec45 4b19 	vmov	d9, r4, r5
 8001d54:	4606      	mov	r6, r0
 8001d56:	460f      	mov	r7, r1
 8001d58:	468b      	mov	fp, r1
 8001d5a:	f340 82fe 	ble.w	800235a <__ieee754_pow+0x972>
 8001d5e:	f101 433f 	add.w	r3, r1, #3204448256	; 0xbf000000
 8001d62:	f503 03e0 	add.w	r3, r3, #7340032	; 0x700000
 8001d66:	4303      	orrs	r3, r0
 8001d68:	f000 81f0 	beq.w	800214c <__ieee754_pow+0x764>
 8001d6c:	a310      	add	r3, pc, #64	; (adr r3, 8001db0 <__ieee754_pow+0x3c8>)
 8001d6e:	e9d3 2300 	ldrd	r2, r3, [r3]
 8001d72:	ec51 0b18 	vmov	r0, r1, d8
 8001d76:	f7fe fbe3 	bl	8000540 <__aeabi_dmul>
 8001d7a:	a30d      	add	r3, pc, #52	; (adr r3, 8001db0 <__ieee754_pow+0x3c8>)
 8001d7c:	e9d3 2300 	ldrd	r2, r3, [r3]
 8001d80:	e6cb      	b.n	8001b1a <__ieee754_pow+0x132>
 8001d82:	bf00      	nop
 8001d84:	f3af 8000 	nop.w
 8001d88:	60000000 	.word	0x60000000
 8001d8c:	3ff71547 	.word	0x3ff71547
 8001d90:	f85ddf44 	.word	0xf85ddf44
 8001d94:	3e54ae0b 	.word	0x3e54ae0b
 8001d98:	55555555 	.word	0x55555555
 8001d9c:	3fd55555 	.word	0x3fd55555
 8001da0:	652b82fe 	.word	0x652b82fe
 8001da4:	3ff71547 	.word	0x3ff71547
 8001da8:	00000000 	.word	0x00000000
 8001dac:	bff00000 	.word	0xbff00000
 8001db0:	8800759c 	.word	0x8800759c
 8001db4:	7e37e43c 	.word	0x7e37e43c
 8001db8:	3ff00000 	.word	0x3ff00000
 8001dbc:	3fd00000 	.word	0x3fd00000
 8001dc0:	3fe00000 	.word	0x3fe00000
 8001dc4:	408fffff 	.word	0x408fffff
 8001dc8:	4bd7      	ldr	r3, [pc, #860]	; (8002128 <__ieee754_pow+0x740>)
 8001dca:	ea03 0309 	and.w	r3, r3, r9
 8001dce:	2200      	movs	r2, #0
 8001dd0:	b92b      	cbnz	r3, 8001dde <__ieee754_pow+0x3f6>
 8001dd2:	4bd6      	ldr	r3, [pc, #856]	; (800212c <__ieee754_pow+0x744>)
 8001dd4:	f7fe fbb4 	bl	8000540 <__aeabi_dmul>
 8001dd8:	f06f 0234 	mvn.w	r2, #52	; 0x34
 8001ddc:	460c      	mov	r4, r1
 8001dde:	1523      	asrs	r3, r4, #20
 8001de0:	f2a3 33ff 	subw	r3, r3, #1023	; 0x3ff
 8001de4:	4413      	add	r3, r2
 8001de6:	9309      	str	r3, [sp, #36]	; 0x24
 8001de8:	4bd1      	ldr	r3, [pc, #836]	; (8002130 <__ieee754_pow+0x748>)
 8001dea:	f3c4 0413 	ubfx	r4, r4, #0, #20
 8001dee:	f044 557f 	orr.w	r5, r4, #1069547520	; 0x3fc00000
 8001df2:	429c      	cmp	r4, r3
 8001df4:	f445 1540 	orr.w	r5, r5, #3145728	; 0x300000
 8001df8:	dd08      	ble.n	8001e0c <__ieee754_pow+0x424>
 8001dfa:	4bce      	ldr	r3, [pc, #824]	; (8002134 <__ieee754_pow+0x74c>)
 8001dfc:	429c      	cmp	r4, r3
 8001dfe:	f340 8163 	ble.w	80020c8 <__ieee754_pow+0x6e0>
 8001e02:	9b09      	ldr	r3, [sp, #36]	; 0x24
 8001e04:	3301      	adds	r3, #1
 8001e06:	9309      	str	r3, [sp, #36]	; 0x24
 8001e08:	f5a5 1580 	sub.w	r5, r5, #1048576	; 0x100000
 8001e0c:	2400      	movs	r4, #0
 8001e0e:	00e3      	lsls	r3, r4, #3
 8001e10:	930b      	str	r3, [sp, #44]	; 0x2c
 8001e12:	4bc9      	ldr	r3, [pc, #804]	; (8002138 <__ieee754_pow+0x750>)
 8001e14:	eb03 03c4 	add.w	r3, r3, r4, lsl #3
 8001e18:	ed93 7b00 	vldr	d7, [r3]
 8001e1c:	4629      	mov	r1, r5
 8001e1e:	ec53 2b17 	vmov	r2, r3, d7
 8001e22:	eeb0 8a47 	vmov.f32	s16, s14
 8001e26:	eef0 8a67 	vmov.f32	s17, s15
 8001e2a:	4682      	mov	sl, r0
 8001e2c:	f7fe f9d0 	bl	80001d0 <__aeabi_dsub>
 8001e30:	4652      	mov	r2, sl
 8001e32:	4606      	mov	r6, r0
 8001e34:	460f      	mov	r7, r1
 8001e36:	462b      	mov	r3, r5
 8001e38:	ec51 0b18 	vmov	r0, r1, d8
 8001e3c:	f7fe f9ca 	bl	80001d4 <__adddf3>
 8001e40:	4602      	mov	r2, r0
 8001e42:	460b      	mov	r3, r1
 8001e44:	2000      	movs	r0, #0
 8001e46:	49bd      	ldr	r1, [pc, #756]	; (800213c <__ieee754_pow+0x754>)
 8001e48:	f7fe fca4 	bl	8000794 <__aeabi_ddiv>
 8001e4c:	ec41 0b19 	vmov	d9, r0, r1
 8001e50:	4602      	mov	r2, r0
 8001e52:	460b      	mov	r3, r1
 8001e54:	4630      	mov	r0, r6
 8001e56:	4639      	mov	r1, r7
 8001e58:	f7fe fb72 	bl	8000540 <__aeabi_dmul>
 8001e5c:	e9cd 0106 	strd	r0, r1, [sp, #24]
 8001e60:	e9dd 2306 	ldrd	r2, r3, [sp, #24]
 8001e64:	e9cd 2304 	strd	r2, r3, [sp, #16]
 8001e68:	2300      	movs	r3, #0
 8001e6a:	9304      	str	r3, [sp, #16]
 8001e6c:	e9dd 8904 	ldrd	r8, r9, [sp, #16]
 8001e70:	46ab      	mov	fp, r5
 8001e72:	106d      	asrs	r5, r5, #1
 8001e74:	f045 5500 	orr.w	r5, r5, #536870912	; 0x20000000
 8001e78:	f505 2500 	add.w	r5, r5, #524288	; 0x80000
 8001e7c:	eb05 4384 	add.w	r3, r5, r4, lsl #18
 8001e80:	2200      	movs	r2, #0
 8001e82:	4640      	mov	r0, r8
 8001e84:	4649      	mov	r1, r9
 8001e86:	4614      	mov	r4, r2
 8001e88:	461d      	mov	r5, r3
 8001e8a:	f7fe fb59 	bl	8000540 <__aeabi_dmul>
 8001e8e:	4602      	mov	r2, r0
 8001e90:	460b      	mov	r3, r1
 8001e92:	4630      	mov	r0, r6
 8001e94:	4639      	mov	r1, r7
 8001e96:	f7fe f99b 	bl	80001d0 <__aeabi_dsub>
 8001e9a:	ec53 2b18 	vmov	r2, r3, d8
 8001e9e:	4606      	mov	r6, r0
 8001ea0:	460f      	mov	r7, r1
 8001ea2:	4620      	mov	r0, r4
 8001ea4:	4629      	mov	r1, r5
 8001ea6:	f7fe f993 	bl	80001d0 <__aeabi_dsub>
 8001eaa:	4602      	mov	r2, r0
 8001eac:	460b      	mov	r3, r1
 8001eae:	4650      	mov	r0, sl
 8001eb0:	4659      	mov	r1, fp
 8001eb2:	f7fe f98d 	bl	80001d0 <__aeabi_dsub>
 8001eb6:	4642      	mov	r2, r8
 8001eb8:	464b      	mov	r3, r9
 8001eba:	f7fe fb41 	bl	8000540 <__aeabi_dmul>
 8001ebe:	4602      	mov	r2, r0
 8001ec0:	460b      	mov	r3, r1
 8001ec2:	4630      	mov	r0, r6
 8001ec4:	4639      	mov	r1, r7
 8001ec6:	f7fe f983 	bl	80001d0 <__aeabi_dsub>
 8001eca:	ec53 2b19 	vmov	r2, r3, d9
 8001ece:	f7fe fb37 	bl	8000540 <__aeabi_dmul>
 8001ed2:	e9dd 2306 	ldrd	r2, r3, [sp, #24]
 8001ed6:	ec41 0b18 	vmov	d8, r0, r1
 8001eda:	4610      	mov	r0, r2
 8001edc:	4619      	mov	r1, r3
 8001ede:	f7fe fb2f 	bl	8000540 <__aeabi_dmul>
 8001ee2:	a37d      	add	r3, pc, #500	; (adr r3, 80020d8 <__ieee754_pow+0x6f0>)
 8001ee4:	e9d3 2300 	ldrd	r2, r3, [r3]
 8001ee8:	4604      	mov	r4, r0
 8001eea:	460d      	mov	r5, r1
 8001eec:	f7fe fb28 	bl	8000540 <__aeabi_dmul>
 8001ef0:	a37b      	add	r3, pc, #492	; (adr r3, 80020e0 <__ieee754_pow+0x6f8>)
 8001ef2:	e9d3 2300 	ldrd	r2, r3, [r3]
 8001ef6:	f7fe f96d 	bl	80001d4 <__adddf3>
 8001efa:	4622      	mov	r2, r4
 8001efc:	462b      	mov	r3, r5
 8001efe:	f7fe fb1f 	bl	8000540 <__aeabi_dmul>
 8001f02:	a379      	add	r3, pc, #484	; (adr r3, 80020e8 <__ieee754_pow+0x700>)
 8001f04:	e9d3 2300 	ldrd	r2, r3, [r3]
 8001f08:	f7fe f964 	bl	80001d4 <__adddf3>
 8001f0c:	4622      	mov	r2, r4
 8001f0e:	462b      	mov	r3, r5
 8001f10:	f7fe fb16 	bl	8000540 <__aeabi_dmul>
 8001f14:	a376      	add	r3, pc, #472	; (adr r3, 80020f0 <__ieee754_pow+0x708>)
 8001f16:	e9d3 2300 	ldrd	r2, r3, [r3]
 8001f1a:	f7fe f95b 	bl	80001d4 <__adddf3>
 8001f1e:	4622      	mov	r2, r4
 8001f20:	462b      	mov	r3, r5
 8001f22:	f7fe fb0d 	bl	8000540 <__aeabi_dmul>
 8001f26:	a374      	add	r3, pc, #464	; (adr r3, 80020f8 <__ieee754_pow+0x710>)
 8001f28:	e9d3 2300 	ldrd	r2, r3, [r3]
 8001f2c:	f7fe f952 	bl	80001d4 <__adddf3>
 8001f30:	4622      	mov	r2, r4
 8001f32:	462b      	mov	r3, r5
 8001f34:	f7fe fb04 	bl	8000540 <__aeabi_dmul>
 8001f38:	a371      	add	r3, pc, #452	; (adr r3, 8002100 <__ieee754_pow+0x718>)
 8001f3a:	e9d3 2300 	ldrd	r2, r3, [r3]
 8001f3e:	f7fe f949 	bl	80001d4 <__adddf3>
 8001f42:	4622      	mov	r2, r4
 8001f44:	4606      	mov	r6, r0
 8001f46:	460f      	mov	r7, r1
 8001f48:	462b      	mov	r3, r5
 8001f4a:	4620      	mov	r0, r4
 8001f4c:	4629      	mov	r1, r5
 8001f4e:	f7fe faf7 	bl	8000540 <__aeabi_dmul>
 8001f52:	4602      	mov	r2, r0
 8001f54:	460b      	mov	r3, r1
 8001f56:	4630      	mov	r0, r6
 8001f58:	4639      	mov	r1, r7
 8001f5a:	f7fe faf1 	bl	8000540 <__aeabi_dmul>
 8001f5e:	4642      	mov	r2, r8
 8001f60:	4604      	mov	r4, r0
 8001f62:	460d      	mov	r5, r1
 8001f64:	464b      	mov	r3, r9
 8001f66:	e9dd 0106 	ldrd	r0, r1, [sp, #24]
 8001f6a:	f7fe f933 	bl	80001d4 <__adddf3>
 8001f6e:	ec53 2b18 	vmov	r2, r3, d8
 8001f72:	f7fe fae5 	bl	8000540 <__aeabi_dmul>
 8001f76:	4622      	mov	r2, r4
 8001f78:	462b      	mov	r3, r5
 8001f7a:	f7fe f92b 	bl	80001d4 <__adddf3>
 8001f7e:	4642      	mov	r2, r8
 8001f80:	4682      	mov	sl, r0
 8001f82:	468b      	mov	fp, r1
 8001f84:	464b      	mov	r3, r9
 8001f86:	4640      	mov	r0, r8
 8001f88:	4649      	mov	r1, r9
 8001f8a:	f7fe fad9 	bl	8000540 <__aeabi_dmul>
 8001f8e:	4b6c      	ldr	r3, [pc, #432]	; (8002140 <__ieee754_pow+0x758>)
 8001f90:	2200      	movs	r2, #0
 8001f92:	4606      	mov	r6, r0
 8001f94:	460f      	mov	r7, r1
 8001f96:	f7fe f91d 	bl	80001d4 <__adddf3>
 8001f9a:	4652      	mov	r2, sl
 8001f9c:	465b      	mov	r3, fp
 8001f9e:	f7fe f919 	bl	80001d4 <__adddf3>
 8001fa2:	9c04      	ldr	r4, [sp, #16]
 8001fa4:	460d      	mov	r5, r1
 8001fa6:	4622      	mov	r2, r4
 8001fa8:	460b      	mov	r3, r1
 8001faa:	4640      	mov	r0, r8
 8001fac:	4649      	mov	r1, r9
 8001fae:	f7fe fac7 	bl	8000540 <__aeabi_dmul>
 8001fb2:	4b63      	ldr	r3, [pc, #396]	; (8002140 <__ieee754_pow+0x758>)
 8001fb4:	4680      	mov	r8, r0
 8001fb6:	4689      	mov	r9, r1
 8001fb8:	2200      	movs	r2, #0
 8001fba:	4620      	mov	r0, r4
 8001fbc:	4629      	mov	r1, r5
 8001fbe:	f7fe f907 	bl	80001d0 <__aeabi_dsub>
 8001fc2:	4632      	mov	r2, r6
 8001fc4:	463b      	mov	r3, r7
 8001fc6:	f7fe f903 	bl	80001d0 <__aeabi_dsub>
 8001fca:	4602      	mov	r2, r0
 8001fcc:	460b      	mov	r3, r1
 8001fce:	4650      	mov	r0, sl
 8001fd0:	4659      	mov	r1, fp
 8001fd2:	f7fe f8fd 	bl	80001d0 <__aeabi_dsub>
 8001fd6:	e9dd 2306 	ldrd	r2, r3, [sp, #24]
 8001fda:	f7fe fab1 	bl	8000540 <__aeabi_dmul>
 8001fde:	4622      	mov	r2, r4
 8001fe0:	4606      	mov	r6, r0
 8001fe2:	460f      	mov	r7, r1
 8001fe4:	462b      	mov	r3, r5
 8001fe6:	ec51 0b18 	vmov	r0, r1, d8
 8001fea:	f7fe faa9 	bl	8000540 <__aeabi_dmul>
 8001fee:	4602      	mov	r2, r0
 8001ff0:	460b      	mov	r3, r1
 8001ff2:	4630      	mov	r0, r6
 8001ff4:	4639      	mov	r1, r7
 8001ff6:	f7fe f8ed 	bl	80001d4 <__adddf3>
 8001ffa:	4606      	mov	r6, r0
 8001ffc:	460f      	mov	r7, r1
 8001ffe:	4602      	mov	r2, r0
 8002000:	460b      	mov	r3, r1
 8002002:	4640      	mov	r0, r8
 8002004:	4649      	mov	r1, r9
 8002006:	f7fe f8e5 	bl	80001d4 <__adddf3>
 800200a:	9c04      	ldr	r4, [sp, #16]
 800200c:	a33e      	add	r3, pc, #248	; (adr r3, 8002108 <__ieee754_pow+0x720>)
 800200e:	e9d3 2300 	ldrd	r2, r3, [r3]
 8002012:	4620      	mov	r0, r4
 8002014:	460d      	mov	r5, r1
 8002016:	f7fe fa93 	bl	8000540 <__aeabi_dmul>
 800201a:	4642      	mov	r2, r8
 800201c:	ec41 0b18 	vmov	d8, r0, r1
 8002020:	464b      	mov	r3, r9
 8002022:	4620      	mov	r0, r4
 8002024:	4629      	mov	r1, r5
 8002026:	f7fe f8d3 	bl	80001d0 <__aeabi_dsub>
 800202a:	4602      	mov	r2, r0
 800202c:	460b      	mov	r3, r1
 800202e:	4630      	mov	r0, r6
 8002030:	4639      	mov	r1, r7
 8002032:	f7fe f8cd 	bl	80001d0 <__aeabi_dsub>
 8002036:	a336      	add	r3, pc, #216	; (adr r3, 8002110 <__ieee754_pow+0x728>)
 8002038:	e9d3 2300 	ldrd	r2, r3, [r3]
 800203c:	f7fe fa80 	bl	8000540 <__aeabi_dmul>
 8002040:	a335      	add	r3, pc, #212	; (adr r3, 8002118 <__ieee754_pow+0x730>)
 8002042:	e9d3 2300 	ldrd	r2, r3, [r3]
 8002046:	4606      	mov	r6, r0
 8002048:	460f      	mov	r7, r1
 800204a:	4620      	mov	r0, r4
 800204c:	4629      	mov	r1, r5
 800204e:	f7fe fa77 	bl	8000540 <__aeabi_dmul>
 8002052:	4602      	mov	r2, r0
 8002054:	460b      	mov	r3, r1
 8002056:	4630      	mov	r0, r6
 8002058:	4639      	mov	r1, r7
 800205a:	f7fe f8bb 	bl	80001d4 <__adddf3>
 800205e:	9a0b      	ldr	r2, [sp, #44]	; 0x2c
 8002060:	4b38      	ldr	r3, [pc, #224]	; (8002144 <__ieee754_pow+0x75c>)
 8002062:	4413      	add	r3, r2
 8002064:	e9d3 2300 	ldrd	r2, r3, [r3]
 8002068:	f7fe f8b4 	bl	80001d4 <__adddf3>
 800206c:	4682      	mov	sl, r0
 800206e:	9809      	ldr	r0, [sp, #36]	; 0x24
 8002070:	468b      	mov	fp, r1
 8002072:	f7fe f9fb 	bl	800046c <__aeabi_i2d>
 8002076:	9a0b      	ldr	r2, [sp, #44]	; 0x2c
 8002078:	4b33      	ldr	r3, [pc, #204]	; (8002148 <__ieee754_pow+0x760>)
 800207a:	4413      	add	r3, r2
 800207c:	e9d3 8900 	ldrd	r8, r9, [r3]
 8002080:	4606      	mov	r6, r0
 8002082:	460f      	mov	r7, r1
 8002084:	4652      	mov	r2, sl
 8002086:	465b      	mov	r3, fp
 8002088:	ec51 0b18 	vmov	r0, r1, d8
 800208c:	f7fe f8a2 	bl	80001d4 <__adddf3>
 8002090:	4642      	mov	r2, r8
 8002092:	464b      	mov	r3, r9
 8002094:	f7fe f89e 	bl	80001d4 <__adddf3>
 8002098:	4632      	mov	r2, r6
 800209a:	463b      	mov	r3, r7
 800209c:	f7fe f89a 	bl	80001d4 <__adddf3>
 80020a0:	9c04      	ldr	r4, [sp, #16]
 80020a2:	4632      	mov	r2, r6
 80020a4:	463b      	mov	r3, r7
 80020a6:	4620      	mov	r0, r4
 80020a8:	460d      	mov	r5, r1
 80020aa:	f7fe f891 	bl	80001d0 <__aeabi_dsub>
 80020ae:	4642      	mov	r2, r8
 80020b0:	464b      	mov	r3, r9
 80020b2:	f7fe f88d 	bl	80001d0 <__aeabi_dsub>
 80020b6:	ec53 2b18 	vmov	r2, r3, d8
 80020ba:	f7fe f889 	bl	80001d0 <__aeabi_dsub>
 80020be:	4602      	mov	r2, r0
 80020c0:	460b      	mov	r3, r1
 80020c2:	4650      	mov	r0, sl
 80020c4:	4659      	mov	r1, fp
 80020c6:	e606      	b.n	8001cd6 <__ieee754_pow+0x2ee>
 80020c8:	2401      	movs	r4, #1
 80020ca:	e6a0      	b.n	8001e0e <__ieee754_pow+0x426>
 80020cc:	ed9f 7b14 	vldr	d7, [pc, #80]	; 8002120 <__ieee754_pow+0x738>
 80020d0:	e60d      	b.n	8001cee <__ieee754_pow+0x306>
 80020d2:	bf00      	nop
 80020d4:	f3af 8000 	nop.w
 80020d8:	4a454eef 	.word	0x4a454eef
 80020dc:	3fca7e28 	.word	0x3fca7e28
 80020e0:	93c9db65 	.word	0x93c9db65
 80020e4:	3fcd864a 	.word	0x3fcd864a
 80020e8:	a91d4101 	.word	0xa91d4101
 80020ec:	3fd17460 	.word	0x3fd17460
 80020f0:	518f264d 	.word	0x518f264d
 80020f4:	3fd55555 	.word	0x3fd55555
 80020f8:	db6fabff 	.word	0xdb6fabff
 80020fc:	3fdb6db6 	.word	0x3fdb6db6
 8002100:	33333303 	.word	0x33333303
 8002104:	3fe33333 	.word	0x3fe33333
 8002108:	e0000000 	.word	0xe0000000
 800210c:	3feec709 	.word	0x3feec709
 8002110:	dc3a03fd 	.word	0xdc3a03fd
 8002114:	3feec709 	.word	0x3feec709
 8002118:	145b01f5 	.word	0x145b01f5
 800211c:	be3e2fe0 	.word	0xbe3e2fe0
 8002120:	00000000 	.word	0x00000000
 8002124:	3ff00000 	.word	0x3ff00000
 8002128:	7ff00000 	.word	0x7ff00000
 800212c:	43400000 	.word	0x43400000
 8002130:	0003988e 	.word	0x0003988e
 8002134:	000bb679 	.word	0x000bb679
 8002138:	08002858 	.word	0x08002858
 800213c:	3ff00000 	.word	0x3ff00000
 8002140:	40080000 	.word	0x40080000
 8002144:	08002878 	.word	0x08002878
 8002148:	08002868 	.word	0x08002868
 800214c:	a3b5      	add	r3, pc, #724	; (adr r3, 8002424 <__ieee754_pow+0xa3c>)
 800214e:	e9d3 2300 	ldrd	r2, r3, [r3]
 8002152:	4640      	mov	r0, r8
 8002154:	4649      	mov	r1, r9
 8002156:	f7fe f83d 	bl	80001d4 <__adddf3>
 800215a:	4622      	mov	r2, r4
 800215c:	ec41 0b1a 	vmov	d10, r0, r1
 8002160:	462b      	mov	r3, r5
 8002162:	4630      	mov	r0, r6
 8002164:	4639      	mov	r1, r7
 8002166:	f7fe f833 	bl	80001d0 <__aeabi_dsub>
 800216a:	4602      	mov	r2, r0
 800216c:	460b      	mov	r3, r1
 800216e:	ec51 0b1a 	vmov	r0, r1, d10
 8002172:	f7fe fc75 	bl	8000a60 <__aeabi_dcmpgt>
 8002176:	2800      	cmp	r0, #0
 8002178:	f47f adf8 	bne.w	8001d6c <__ieee754_pow+0x384>
 800217c:	4aa4      	ldr	r2, [pc, #656]	; (8002410 <__ieee754_pow+0xa28>)
 800217e:	f02b 4300 	bic.w	r3, fp, #2147483648	; 0x80000000
 8002182:	4293      	cmp	r3, r2
 8002184:	f340 810b 	ble.w	800239e <__ieee754_pow+0x9b6>
 8002188:	151b      	asrs	r3, r3, #20
 800218a:	f44f 1a80 	mov.w	sl, #1048576	; 0x100000
 800218e:	f2a3 33fe 	subw	r3, r3, #1022	; 0x3fe
 8002192:	fa4a f303 	asr.w	r3, sl, r3
 8002196:	445b      	add	r3, fp
 8002198:	f3c3 520a 	ubfx	r2, r3, #20, #11
 800219c:	4e9d      	ldr	r6, [pc, #628]	; (8002414 <__ieee754_pow+0xa2c>)
 800219e:	f2a2 32ff 	subw	r2, r2, #1023	; 0x3ff
 80021a2:	4116      	asrs	r6, r2
 80021a4:	f3c3 0a13 	ubfx	sl, r3, #0, #20
 80021a8:	2000      	movs	r0, #0
 80021aa:	ea23 0106 	bic.w	r1, r3, r6
 80021ae:	f1c2 0214 	rsb	r2, r2, #20
 80021b2:	f44a 1a80 	orr.w	sl, sl, #1048576	; 0x100000
 80021b6:	fa4a fa02 	asr.w	sl, sl, r2
 80021ba:	f1bb 0f00 	cmp.w	fp, #0
 80021be:	4602      	mov	r2, r0
 80021c0:	460b      	mov	r3, r1
 80021c2:	4620      	mov	r0, r4
 80021c4:	4629      	mov	r1, r5
 80021c6:	bfb8      	it	lt
 80021c8:	f1ca 0a00 	rsblt	sl, sl, #0
 80021cc:	f7fe f800 	bl	80001d0 <__aeabi_dsub>
 80021d0:	ec41 0b19 	vmov	d9, r0, r1
 80021d4:	4642      	mov	r2, r8
 80021d6:	464b      	mov	r3, r9
 80021d8:	ec51 0b19 	vmov	r0, r1, d9
 80021dc:	f7fd fffa 	bl	80001d4 <__adddf3>
 80021e0:	2400      	movs	r4, #0
 80021e2:	a379      	add	r3, pc, #484	; (adr r3, 80023c8 <__ieee754_pow+0x9e0>)
 80021e4:	e9d3 2300 	ldrd	r2, r3, [r3]
 80021e8:	4620      	mov	r0, r4
 80021ea:	460d      	mov	r5, r1
 80021ec:	f7fe f9a8 	bl	8000540 <__aeabi_dmul>
 80021f0:	ec53 2b19 	vmov	r2, r3, d9
 80021f4:	4606      	mov	r6, r0
 80021f6:	460f      	mov	r7, r1
 80021f8:	4620      	mov	r0, r4
 80021fa:	4629      	mov	r1, r5
 80021fc:	f7fd ffe8 	bl	80001d0 <__aeabi_dsub>
 8002200:	4602      	mov	r2, r0
 8002202:	460b      	mov	r3, r1
 8002204:	4640      	mov	r0, r8
 8002206:	4649      	mov	r1, r9
 8002208:	f7fd ffe2 	bl	80001d0 <__aeabi_dsub>
 800220c:	a370      	add	r3, pc, #448	; (adr r3, 80023d0 <__ieee754_pow+0x9e8>)
 800220e:	e9d3 2300 	ldrd	r2, r3, [r3]
 8002212:	f7fe f995 	bl	8000540 <__aeabi_dmul>
 8002216:	a370      	add	r3, pc, #448	; (adr r3, 80023d8 <__ieee754_pow+0x9f0>)
 8002218:	e9d3 2300 	ldrd	r2, r3, [r3]
 800221c:	4680      	mov	r8, r0
 800221e:	4689      	mov	r9, r1
 8002220:	4620      	mov	r0, r4
 8002222:	4629      	mov	r1, r5
 8002224:	f7fe f98c 	bl	8000540 <__aeabi_dmul>
 8002228:	4602      	mov	r2, r0
 800222a:	460b      	mov	r3, r1
 800222c:	4640      	mov	r0, r8
 800222e:	4649      	mov	r1, r9
 8002230:	f7fd ffd0 	bl	80001d4 <__adddf3>
 8002234:	4604      	mov	r4, r0
 8002236:	460d      	mov	r5, r1
 8002238:	4602      	mov	r2, r0
 800223a:	460b      	mov	r3, r1
 800223c:	4630      	mov	r0, r6
 800223e:	4639      	mov	r1, r7
 8002240:	f7fd ffc8 	bl	80001d4 <__adddf3>
 8002244:	4632      	mov	r2, r6
 8002246:	463b      	mov	r3, r7
 8002248:	4680      	mov	r8, r0
 800224a:	4689      	mov	r9, r1
 800224c:	f7fd ffc0 	bl	80001d0 <__aeabi_dsub>
 8002250:	4602      	mov	r2, r0
 8002252:	460b      	mov	r3, r1
 8002254:	4620      	mov	r0, r4
 8002256:	4629      	mov	r1, r5
 8002258:	f7fd ffba 	bl	80001d0 <__aeabi_dsub>
 800225c:	4642      	mov	r2, r8
 800225e:	4606      	mov	r6, r0
 8002260:	460f      	mov	r7, r1
 8002262:	464b      	mov	r3, r9
 8002264:	4640      	mov	r0, r8
 8002266:	4649      	mov	r1, r9
 8002268:	f7fe f96a 	bl	8000540 <__aeabi_dmul>
 800226c:	a35c      	add	r3, pc, #368	; (adr r3, 80023e0 <__ieee754_pow+0x9f8>)
 800226e:	e9d3 2300 	ldrd	r2, r3, [r3]
 8002272:	4604      	mov	r4, r0
 8002274:	460d      	mov	r5, r1
 8002276:	f7fe f963 	bl	8000540 <__aeabi_dmul>
 800227a:	a35b      	add	r3, pc, #364	; (adr r3, 80023e8 <__ieee754_pow+0xa00>)
 800227c:	e9d3 2300 	ldrd	r2, r3, [r3]
 8002280:	f7fd ffa6 	bl	80001d0 <__aeabi_dsub>
 8002284:	4622      	mov	r2, r4
 8002286:	462b      	mov	r3, r5
 8002288:	f7fe f95a 	bl	8000540 <__aeabi_dmul>
 800228c:	a358      	add	r3, pc, #352	; (adr r3, 80023f0 <__ieee754_pow+0xa08>)
 800228e:	e9d3 2300 	ldrd	r2, r3, [r3]
 8002292:	f7fd ff9f 	bl	80001d4 <__adddf3>
 8002296:	4622      	mov	r2, r4
 8002298:	462b      	mov	r3, r5
 800229a:	f7fe f951 	bl	8000540 <__aeabi_dmul>
 800229e:	a356      	add	r3, pc, #344	; (adr r3, 80023f8 <__ieee754_pow+0xa10>)
 80022a0:	e9d3 2300 	ldrd	r2, r3, [r3]
 80022a4:	f7fd ff94 	bl	80001d0 <__aeabi_dsub>
 80022a8:	4622      	mov	r2, r4
 80022aa:	462b      	mov	r3, r5
 80022ac:	f7fe f948 	bl	8000540 <__aeabi_dmul>
 80022b0:	a353      	add	r3, pc, #332	; (adr r3, 8002400 <__ieee754_pow+0xa18>)
 80022b2:	e9d3 2300 	ldrd	r2, r3, [r3]
 80022b6:	f7fd ff8d 	bl	80001d4 <__adddf3>
 80022ba:	4622      	mov	r2, r4
 80022bc:	462b      	mov	r3, r5
 80022be:	f7fe f93f 	bl	8000540 <__aeabi_dmul>
 80022c2:	4602      	mov	r2, r0
 80022c4:	460b      	mov	r3, r1
 80022c6:	4640      	mov	r0, r8
 80022c8:	4649      	mov	r1, r9
 80022ca:	f7fd ff81 	bl	80001d0 <__aeabi_dsub>
 80022ce:	4604      	mov	r4, r0
 80022d0:	460d      	mov	r5, r1
 80022d2:	4602      	mov	r2, r0
 80022d4:	460b      	mov	r3, r1
 80022d6:	4640      	mov	r0, r8
 80022d8:	4649      	mov	r1, r9
 80022da:	f7fe f931 	bl	8000540 <__aeabi_dmul>
 80022de:	2200      	movs	r2, #0
 80022e0:	ec41 0b19 	vmov	d9, r0, r1
 80022e4:	f04f 4380 	mov.w	r3, #1073741824	; 0x40000000
 80022e8:	4620      	mov	r0, r4
 80022ea:	4629      	mov	r1, r5
 80022ec:	f7fd ff70 	bl	80001d0 <__aeabi_dsub>
 80022f0:	4602      	mov	r2, r0
 80022f2:	460b      	mov	r3, r1
 80022f4:	ec51 0b19 	vmov	r0, r1, d9
 80022f8:	f7fe fa4c 	bl	8000794 <__aeabi_ddiv>
 80022fc:	4632      	mov	r2, r6
 80022fe:	4604      	mov	r4, r0
 8002300:	460d      	mov	r5, r1
 8002302:	463b      	mov	r3, r7
 8002304:	4640      	mov	r0, r8
 8002306:	4649      	mov	r1, r9
 8002308:	f7fe f91a 	bl	8000540 <__aeabi_dmul>
 800230c:	4632      	mov	r2, r6
 800230e:	463b      	mov	r3, r7
 8002310:	f7fd ff60 	bl	80001d4 <__adddf3>
 8002314:	4602      	mov	r2, r0
 8002316:	460b      	mov	r3, r1
 8002318:	4620      	mov	r0, r4
 800231a:	4629      	mov	r1, r5
 800231c:	f7fd ff58 	bl	80001d0 <__aeabi_dsub>
 8002320:	4642      	mov	r2, r8
 8002322:	464b      	mov	r3, r9
 8002324:	f7fd ff54 	bl	80001d0 <__aeabi_dsub>
 8002328:	460b      	mov	r3, r1
 800232a:	4602      	mov	r2, r0
 800232c:	493a      	ldr	r1, [pc, #232]	; (8002418 <__ieee754_pow+0xa30>)
 800232e:	2000      	movs	r0, #0
 8002330:	f7fd ff4e 	bl	80001d0 <__aeabi_dsub>
 8002334:	e9cd 0100 	strd	r0, r1, [sp]
 8002338:	9b01      	ldr	r3, [sp, #4]
 800233a:	eb03 530a 	add.w	r3, r3, sl, lsl #20
 800233e:	f5b3 1f80 	cmp.w	r3, #1048576	; 0x100000
 8002342:	da2f      	bge.n	80023a4 <__ieee754_pow+0x9bc>
 8002344:	4650      	mov	r0, sl
 8002346:	ed9d 0b00 	vldr	d0, [sp]
 800234a:	f000 f9cd 	bl	80026e8 <scalbn>
 800234e:	ec51 0b10 	vmov	r0, r1, d0
 8002352:	ec53 2b18 	vmov	r2, r3, d8
 8002356:	f7ff bbe0 	b.w	8001b1a <__ieee754_pow+0x132>
 800235a:	4b30      	ldr	r3, [pc, #192]	; (800241c <__ieee754_pow+0xa34>)
 800235c:	f021 4600 	bic.w	r6, r1, #2147483648	; 0x80000000
 8002360:	429e      	cmp	r6, r3
 8002362:	f77f af0b 	ble.w	800217c <__ieee754_pow+0x794>
 8002366:	4b2e      	ldr	r3, [pc, #184]	; (8002420 <__ieee754_pow+0xa38>)
 8002368:	440b      	add	r3, r1
 800236a:	4303      	orrs	r3, r0
 800236c:	d00b      	beq.n	8002386 <__ieee754_pow+0x99e>
 800236e:	a326      	add	r3, pc, #152	; (adr r3, 8002408 <__ieee754_pow+0xa20>)
 8002370:	e9d3 2300 	ldrd	r2, r3, [r3]
 8002374:	ec51 0b18 	vmov	r0, r1, d8
 8002378:	f7fe f8e2 	bl	8000540 <__aeabi_dmul>
 800237c:	a322      	add	r3, pc, #136	; (adr r3, 8002408 <__ieee754_pow+0xa20>)
 800237e:	e9d3 2300 	ldrd	r2, r3, [r3]
 8002382:	f7ff bbca 	b.w	8001b1a <__ieee754_pow+0x132>
 8002386:	4622      	mov	r2, r4
 8002388:	462b      	mov	r3, r5
 800238a:	f7fd ff21 	bl	80001d0 <__aeabi_dsub>
 800238e:	4642      	mov	r2, r8
 8002390:	464b      	mov	r3, r9
 8002392:	f7fe fb5b 	bl	8000a4c <__aeabi_dcmpge>
 8002396:	2800      	cmp	r0, #0
 8002398:	f43f aef0 	beq.w	800217c <__ieee754_pow+0x794>
 800239c:	e7e7      	b.n	800236e <__ieee754_pow+0x986>
 800239e:	f04f 0a00 	mov.w	sl, #0
 80023a2:	e717      	b.n	80021d4 <__ieee754_pow+0x7ec>
 80023a4:	e9dd 0100 	ldrd	r0, r1, [sp]
 80023a8:	4619      	mov	r1, r3
 80023aa:	e7d2      	b.n	8002352 <__ieee754_pow+0x96a>
 80023ac:	491a      	ldr	r1, [pc, #104]	; (8002418 <__ieee754_pow+0xa30>)
 80023ae:	2000      	movs	r0, #0
 80023b0:	f7ff bb9e 	b.w	8001af0 <__ieee754_pow+0x108>
 80023b4:	e9dd 0102 	ldrd	r0, r1, [sp, #8]
 80023b8:	f7ff bb9a 	b.w	8001af0 <__ieee754_pow+0x108>
 80023bc:	9000      	str	r0, [sp, #0]
 80023be:	f7ff bb76 	b.w	8001aae <__ieee754_pow+0xc6>
 80023c2:	2100      	movs	r1, #0
 80023c4:	f7ff bb60 	b.w	8001a88 <__ieee754_pow+0xa0>
 80023c8:	00000000 	.word	0x00000000
 80023cc:	3fe62e43 	.word	0x3fe62e43
 80023d0:	fefa39ef 	.word	0xfefa39ef
 80023d4:	3fe62e42 	.word	0x3fe62e42
 80023d8:	0ca86c39 	.word	0x0ca86c39
 80023dc:	be205c61 	.word	0xbe205c61
 80023e0:	72bea4d0 	.word	0x72bea4d0
 80023e4:	3e663769 	.word	0x3e663769
 80023e8:	c5d26bf1 	.word	0xc5d26bf1
 80023ec:	3ebbbd41 	.word	0x3ebbbd41
 80023f0:	af25de2c 	.word	0xaf25de2c
 80023f4:	3f11566a 	.word	0x3f11566a
 80023f8:	16bebd93 	.word	0x16bebd93
 80023fc:	3f66c16c 	.word	0x3f66c16c
 8002400:	5555553e 	.word	0x5555553e
 8002404:	3fc55555 	.word	0x3fc55555
 8002408:	c2f8f359 	.word	0xc2f8f359
 800240c:	01a56e1f 	.word	0x01a56e1f
 8002410:	3fe00000 	.word	0x3fe00000
 8002414:	000fffff 	.word	0x000fffff
 8002418:	3ff00000 	.word	0x3ff00000
 800241c:	4090cbff 	.word	0x4090cbff
 8002420:	3f6f3400 	.word	0x3f6f3400
 8002424:	652b82fe 	.word	0x652b82fe
 8002428:	3c971547 	.word	0x3c971547

0800242c <__ieee754_sqrt>:
 800242c:	e92d 41f0 	stmdb	sp!, {r4, r5, r6, r7, r8, lr}
 8002430:	ec55 4b10 	vmov	r4, r5, d0
 8002434:	4e56      	ldr	r6, [pc, #344]	; (8002590 <__ieee754_sqrt+0x164>)
 8002436:	43ae      	bics	r6, r5
 8002438:	ee10 0a10 	vmov	r0, s0
 800243c:	ee10 3a10 	vmov	r3, s0
 8002440:	4629      	mov	r1, r5
 8002442:	462a      	mov	r2, r5
 8002444:	d110      	bne.n	8002468 <__ieee754_sqrt+0x3c>
 8002446:	ee10 2a10 	vmov	r2, s0
 800244a:	462b      	mov	r3, r5
 800244c:	f7fe f878 	bl	8000540 <__aeabi_dmul>
 8002450:	4602      	mov	r2, r0
 8002452:	460b      	mov	r3, r1
 8002454:	4620      	mov	r0, r4
 8002456:	4629      	mov	r1, r5
 8002458:	f7fd febc 	bl	80001d4 <__adddf3>
 800245c:	4604      	mov	r4, r0
 800245e:	460d      	mov	r5, r1
 8002460:	ec45 4b10 	vmov	d0, r4, r5
 8002464:	e8bd 81f0 	ldmia.w	sp!, {r4, r5, r6, r7, r8, pc}
 8002468:	2d00      	cmp	r5, #0
 800246a:	dc10      	bgt.n	800248e <__ieee754_sqrt+0x62>
 800246c:	f025 4600 	bic.w	r6, r5, #2147483648	; 0x80000000
 8002470:	4330      	orrs	r0, r6
 8002472:	d0f5      	beq.n	8002460 <__ieee754_sqrt+0x34>
 8002474:	b15d      	cbz	r5, 800248e <__ieee754_sqrt+0x62>
 8002476:	ee10 2a10 	vmov	r2, s0
 800247a:	462b      	mov	r3, r5
 800247c:	ee10 0a10 	vmov	r0, s0
 8002480:	f7fd fea6 	bl	80001d0 <__aeabi_dsub>
 8002484:	4602      	mov	r2, r0
 8002486:	460b      	mov	r3, r1
 8002488:	f7fe f984 	bl	8000794 <__aeabi_ddiv>
 800248c:	e7e6      	b.n	800245c <__ieee754_sqrt+0x30>
 800248e:	1509      	asrs	r1, r1, #20
 8002490:	d076      	beq.n	8002580 <__ieee754_sqrt+0x154>
 8002492:	f3c2 0213 	ubfx	r2, r2, #0, #20
 8002496:	07ce      	lsls	r6, r1, #31
 8002498:	f442 1080 	orr.w	r0, r2, #1048576	; 0x100000
 800249c:	bf5e      	ittt	pl
 800249e:	0fda      	lsrpl	r2, r3, #31
 80024a0:	005b      	lslpl	r3, r3, #1
 80024a2:	eb02 0040 	addpl.w	r0, r2, r0, lsl #1
 80024a6:	0fda      	lsrs	r2, r3, #31
 80024a8:	f2a1 35ff 	subw	r5, r1, #1023	; 0x3ff
 80024ac:	eb02 0240 	add.w	r2, r2, r0, lsl #1
 80024b0:	2000      	movs	r0, #0
 80024b2:	106d      	asrs	r5, r5, #1
 80024b4:	005b      	lsls	r3, r3, #1
 80024b6:	f04f 0e16 	mov.w	lr, #22
 80024ba:	4684      	mov	ip, r0
 80024bc:	f44f 1100 	mov.w	r1, #2097152	; 0x200000
 80024c0:	eb0c 0401 	add.w	r4, ip, r1
 80024c4:	4294      	cmp	r4, r2
 80024c6:	bfde      	ittt	le
 80024c8:	1b12      	suble	r2, r2, r4
 80024ca:	eb04 0c01 	addle.w	ip, r4, r1
 80024ce:	1840      	addle	r0, r0, r1
 80024d0:	0052      	lsls	r2, r2, #1
 80024d2:	f1be 0e01 	subs.w	lr, lr, #1
 80024d6:	eb02 72d3 	add.w	r2, r2, r3, lsr #31
 80024da:	ea4f 0151 	mov.w	r1, r1, lsr #1
 80024de:	ea4f 0343 	mov.w	r3, r3, lsl #1
 80024e2:	d1ed      	bne.n	80024c0 <__ieee754_sqrt+0x94>
 80024e4:	4671      	mov	r1, lr
 80024e6:	2720      	movs	r7, #32
 80024e8:	f04f 4400 	mov.w	r4, #2147483648	; 0x80000000
 80024ec:	4562      	cmp	r2, ip
 80024ee:	eb04 060e 	add.w	r6, r4, lr
 80024f2:	dc02      	bgt.n	80024fa <__ieee754_sqrt+0xce>
 80024f4:	d113      	bne.n	800251e <__ieee754_sqrt+0xf2>
 80024f6:	429e      	cmp	r6, r3
 80024f8:	d811      	bhi.n	800251e <__ieee754_sqrt+0xf2>
 80024fa:	2e00      	cmp	r6, #0
 80024fc:	eb06 0e04 	add.w	lr, r6, r4
 8002500:	da43      	bge.n	800258a <__ieee754_sqrt+0x15e>
 8002502:	f1be 0f00 	cmp.w	lr, #0
 8002506:	db40      	blt.n	800258a <__ieee754_sqrt+0x15e>
 8002508:	f10c 0801 	add.w	r8, ip, #1
 800250c:	eba2 020c 	sub.w	r2, r2, ip
 8002510:	429e      	cmp	r6, r3
 8002512:	bf88      	it	hi
 8002514:	f102 32ff 	addhi.w	r2, r2, #4294967295	; 0xffffffff
 8002518:	1b9b      	subs	r3, r3, r6
 800251a:	4421      	add	r1, r4
 800251c:	46c4      	mov	ip, r8
 800251e:	0052      	lsls	r2, r2, #1
 8002520:	3f01      	subs	r7, #1
 8002522:	eb02 72d3 	add.w	r2, r2, r3, lsr #31
 8002526:	ea4f 0454 	mov.w	r4, r4, lsr #1
 800252a:	ea4f 0343 	mov.w	r3, r3, lsl #1
 800252e:	d1dd      	bne.n	80024ec <__ieee754_sqrt+0xc0>
 8002530:	4313      	orrs	r3, r2
 8002532:	d006      	beq.n	8002542 <__ieee754_sqrt+0x116>
 8002534:	1c4c      	adds	r4, r1, #1
 8002536:	bf13      	iteet	ne
 8002538:	3101      	addne	r1, #1
 800253a:	3001      	addeq	r0, #1
 800253c:	4639      	moveq	r1, r7
 800253e:	f021 0101 	bicne.w	r1, r1, #1
 8002542:	1043      	asrs	r3, r0, #1
 8002544:	f103 537f 	add.w	r3, r3, #1069547520	; 0x3fc00000
 8002548:	0849      	lsrs	r1, r1, #1
 800254a:	f503 1300 	add.w	r3, r3, #2097152	; 0x200000
 800254e:	07c2      	lsls	r2, r0, #31
 8002550:	bf48      	it	mi
 8002552:	f041 4100 	orrmi.w	r1, r1, #2147483648	; 0x80000000
 8002556:	eb03 5705 	add.w	r7, r3, r5, lsl #20
 800255a:	460c      	mov	r4, r1
 800255c:	463d      	mov	r5, r7
 800255e:	e77f      	b.n	8002460 <__ieee754_sqrt+0x34>
 8002560:	0ada      	lsrs	r2, r3, #11
 8002562:	3815      	subs	r0, #21
 8002564:	055b      	lsls	r3, r3, #21
 8002566:	2a00      	cmp	r2, #0
 8002568:	d0fa      	beq.n	8002560 <__ieee754_sqrt+0x134>
 800256a:	02d7      	lsls	r7, r2, #11
 800256c:	d50a      	bpl.n	8002584 <__ieee754_sqrt+0x158>
 800256e:	f1c1 0420 	rsb	r4, r1, #32
 8002572:	fa23 f404 	lsr.w	r4, r3, r4
 8002576:	1e4d      	subs	r5, r1, #1
 8002578:	408b      	lsls	r3, r1
 800257a:	4322      	orrs	r2, r4
 800257c:	1b41      	subs	r1, r0, r5
 800257e:	e788      	b.n	8002492 <__ieee754_sqrt+0x66>
 8002580:	4608      	mov	r0, r1
 8002582:	e7f0      	b.n	8002566 <__ieee754_sqrt+0x13a>
 8002584:	0052      	lsls	r2, r2, #1
 8002586:	3101      	adds	r1, #1
 8002588:	e7ef      	b.n	800256a <__ieee754_sqrt+0x13e>
 800258a:	46e0      	mov	r8, ip
 800258c:	e7be      	b.n	800250c <__ieee754_sqrt+0xe0>
 800258e:	bf00      	nop
 8002590:	7ff00000 	.word	0x7ff00000

08002594 <fabs>:
 8002594:	ec51 0b10 	vmov	r0, r1, d0
 8002598:	ee10 2a10 	vmov	r2, s0
 800259c:	f021 4300 	bic.w	r3, r1, #2147483648	; 0x80000000
 80025a0:	ec43 2b10 	vmov	d0, r2, r3
 80025a4:	4770      	bx	lr

080025a6 <finite>:
 80025a6:	b082      	sub	sp, #8
 80025a8:	ed8d 0b00 	vstr	d0, [sp]
 80025ac:	9801      	ldr	r0, [sp, #4]
 80025ae:	f040 4000 	orr.w	r0, r0, #2147483648	; 0x80000000
 80025b2:	f500 1080 	add.w	r0, r0, #1048576	; 0x100000
 80025b6:	0fc0      	lsrs	r0, r0, #31
 80025b8:	b002      	add	sp, #8
 80025ba:	4770      	bx	lr
 80025bc:	0000      	movs	r0, r0
	...

080025c0 <nan>:
 80025c0:	ed9f 0b01 	vldr	d0, [pc, #4]	; 80025c8 <nan+0x8>
 80025c4:	4770      	bx	lr
 80025c6:	bf00      	nop
 80025c8:	00000000 	.word	0x00000000
 80025cc:	7ff80000 	.word	0x7ff80000

080025d0 <rint>:
 80025d0:	b5f7      	push	{r0, r1, r2, r4, r5, r6, r7, lr}
 80025d2:	ec51 0b10 	vmov	r0, r1, d0
 80025d6:	f3c1 520a 	ubfx	r2, r1, #20, #11
 80025da:	f2a2 36ff 	subw	r6, r2, #1023	; 0x3ff
 80025de:	2e13      	cmp	r6, #19
 80025e0:	ee10 4a10 	vmov	r4, s0
 80025e4:	460b      	mov	r3, r1
 80025e6:	ea4f 75d1 	mov.w	r5, r1, lsr #31
 80025ea:	dc58      	bgt.n	800269e <rint+0xce>
 80025ec:	2e00      	cmp	r6, #0
 80025ee:	da2b      	bge.n	8002648 <rint+0x78>
 80025f0:	f021 4200 	bic.w	r2, r1, #2147483648	; 0x80000000
 80025f4:	4302      	orrs	r2, r0
 80025f6:	d023      	beq.n	8002640 <rint+0x70>
 80025f8:	f3c1 0213 	ubfx	r2, r1, #0, #20
 80025fc:	4302      	orrs	r2, r0
 80025fe:	4254      	negs	r4, r2
 8002600:	4314      	orrs	r4, r2
 8002602:	0c4b      	lsrs	r3, r1, #17
 8002604:	0b24      	lsrs	r4, r4, #12
 8002606:	045b      	lsls	r3, r3, #17
 8002608:	f404 2400 	and.w	r4, r4, #524288	; 0x80000
 800260c:	ea44 0103 	orr.w	r1, r4, r3
 8002610:	4b32      	ldr	r3, [pc, #200]	; (80026dc <rint+0x10c>)
 8002612:	eb03 03c5 	add.w	r3, r3, r5, lsl #3
 8002616:	e9d3 6700 	ldrd	r6, r7, [r3]
 800261a:	4602      	mov	r2, r0
 800261c:	460b      	mov	r3, r1
 800261e:	4630      	mov	r0, r6
 8002620:	4639      	mov	r1, r7
 8002622:	f7fd fdd7 	bl	80001d4 <__adddf3>
 8002626:	e9cd 0100 	strd	r0, r1, [sp]
 800262a:	463b      	mov	r3, r7
 800262c:	e9dd 0100 	ldrd	r0, r1, [sp]
 8002630:	4632      	mov	r2, r6
 8002632:	f7fd fdcd 	bl	80001d0 <__aeabi_dsub>
 8002636:	f021 4300 	bic.w	r3, r1, #2147483648	; 0x80000000
 800263a:	ea43 77c5 	orr.w	r7, r3, r5, lsl #31
 800263e:	4639      	mov	r1, r7
 8002640:	ec41 0b10 	vmov	d0, r0, r1
 8002644:	b003      	add	sp, #12
 8002646:	bdf0      	pop	{r4, r5, r6, r7, pc}
 8002648:	4a25      	ldr	r2, [pc, #148]	; (80026e0 <rint+0x110>)
 800264a:	4132      	asrs	r2, r6
 800264c:	ea01 0702 	and.w	r7, r1, r2
 8002650:	4307      	orrs	r7, r0
 8002652:	d0f5      	beq.n	8002640 <rint+0x70>
 8002654:	0851      	lsrs	r1, r2, #1
 8002656:	ea03 0252 	and.w	r2, r3, r2, lsr #1
 800265a:	4314      	orrs	r4, r2
 800265c:	d00c      	beq.n	8002678 <rint+0xa8>
 800265e:	ea23 0201 	bic.w	r2, r3, r1
 8002662:	f44f 2380 	mov.w	r3, #262144	; 0x40000
 8002666:	2e13      	cmp	r6, #19
 8002668:	fa43 f606 	asr.w	r6, r3, r6
 800266c:	bf0c      	ite	eq
 800266e:	f04f 4400 	moveq.w	r4, #2147483648	; 0x80000000
 8002672:	2400      	movne	r4, #0
 8002674:	ea42 0306 	orr.w	r3, r2, r6
 8002678:	4918      	ldr	r1, [pc, #96]	; (80026dc <rint+0x10c>)
 800267a:	eb01 05c5 	add.w	r5, r1, r5, lsl #3
 800267e:	4622      	mov	r2, r4
 8002680:	e9d5 4500 	ldrd	r4, r5, [r5]
 8002684:	4620      	mov	r0, r4
 8002686:	4629      	mov	r1, r5
 8002688:	f7fd fda4 	bl	80001d4 <__adddf3>
 800268c:	e9cd 0100 	strd	r0, r1, [sp]
 8002690:	e9dd 0100 	ldrd	r0, r1, [sp]
 8002694:	4622      	mov	r2, r4
 8002696:	462b      	mov	r3, r5
 8002698:	f7fd fd9a 	bl	80001d0 <__aeabi_dsub>
 800269c:	e7d0      	b.n	8002640 <rint+0x70>
 800269e:	2e33      	cmp	r6, #51	; 0x33
 80026a0:	dd07      	ble.n	80026b2 <rint+0xe2>
 80026a2:	f5b6 6f80 	cmp.w	r6, #1024	; 0x400
 80026a6:	d1cb      	bne.n	8002640 <rint+0x70>
 80026a8:	ee10 2a10 	vmov	r2, s0
 80026ac:	f7fd fd92 	bl	80001d4 <__adddf3>
 80026b0:	e7c6      	b.n	8002640 <rint+0x70>
 80026b2:	f2a2 4213 	subw	r2, r2, #1043	; 0x413
 80026b6:	f04f 36ff 	mov.w	r6, #4294967295	; 0xffffffff
 80026ba:	40d6      	lsrs	r6, r2
 80026bc:	4230      	tst	r0, r6
 80026be:	d0bf      	beq.n	8002640 <rint+0x70>
 80026c0:	ea14 0056 	ands.w	r0, r4, r6, lsr #1
 80026c4:	ea4f 0156 	mov.w	r1, r6, lsr #1
 80026c8:	bf1f      	itttt	ne
 80026ca:	ea24 0101 	bicne.w	r1, r4, r1
 80026ce:	f04f 4480 	movne.w	r4, #1073741824	; 0x40000000
 80026d2:	fa44 f202 	asrne.w	r2, r4, r2
 80026d6:	ea41 0402 	orrne.w	r4, r1, r2
 80026da:	e7cd      	b.n	8002678 <rint+0xa8>
 80026dc:	08002888 	.word	0x08002888
 80026e0:	000fffff 	.word	0x000fffff
 80026e4:	00000000 	.word	0x00000000

080026e8 <scalbn>:
 80026e8:	b570      	push	{r4, r5, r6, lr}
 80026ea:	ec55 4b10 	vmov	r4, r5, d0
 80026ee:	f3c5 520a 	ubfx	r2, r5, #20, #11
 80026f2:	4606      	mov	r6, r0
 80026f4:	462b      	mov	r3, r5
 80026f6:	b99a      	cbnz	r2, 8002720 <scalbn+0x38>
 80026f8:	f025 4300 	bic.w	r3, r5, #2147483648	; 0x80000000
 80026fc:	4323      	orrs	r3, r4
 80026fe:	d036      	beq.n	800276e <scalbn+0x86>
 8002700:	4b39      	ldr	r3, [pc, #228]	; (80027e8 <scalbn+0x100>)
 8002702:	4629      	mov	r1, r5
 8002704:	ee10 0a10 	vmov	r0, s0
 8002708:	2200      	movs	r2, #0
 800270a:	f7fd ff19 	bl	8000540 <__aeabi_dmul>
 800270e:	4b37      	ldr	r3, [pc, #220]	; (80027ec <scalbn+0x104>)
 8002710:	429e      	cmp	r6, r3
 8002712:	4604      	mov	r4, r0
 8002714:	460d      	mov	r5, r1
 8002716:	da10      	bge.n	800273a <scalbn+0x52>
 8002718:	a32b      	add	r3, pc, #172	; (adr r3, 80027c8 <scalbn+0xe0>)
 800271a:	e9d3 2300 	ldrd	r2, r3, [r3]
 800271e:	e03a      	b.n	8002796 <scalbn+0xae>
 8002720:	f240 71ff 	movw	r1, #2047	; 0x7ff
 8002724:	428a      	cmp	r2, r1
 8002726:	d10c      	bne.n	8002742 <scalbn+0x5a>
 8002728:	ee10 2a10 	vmov	r2, s0
 800272c:	4620      	mov	r0, r4
 800272e:	4629      	mov	r1, r5
 8002730:	f7fd fd50 	bl	80001d4 <__adddf3>
 8002734:	4604      	mov	r4, r0
 8002736:	460d      	mov	r5, r1
 8002738:	e019      	b.n	800276e <scalbn+0x86>
 800273a:	f3c1 520a 	ubfx	r2, r1, #20, #11
 800273e:	460b      	mov	r3, r1
 8002740:	3a36      	subs	r2, #54	; 0x36
 8002742:	4432      	add	r2, r6
 8002744:	f240 71fe 	movw	r1, #2046	; 0x7fe
 8002748:	428a      	cmp	r2, r1
 800274a:	dd08      	ble.n	800275e <scalbn+0x76>
 800274c:	2d00      	cmp	r5, #0
 800274e:	a120      	add	r1, pc, #128	; (adr r1, 80027d0 <scalbn+0xe8>)
 8002750:	e9d1 0100 	ldrd	r0, r1, [r1]
 8002754:	da1c      	bge.n	8002790 <scalbn+0xa8>
 8002756:	a120      	add	r1, pc, #128	; (adr r1, 80027d8 <scalbn+0xf0>)
 8002758:	e9d1 0100 	ldrd	r0, r1, [r1]
 800275c:	e018      	b.n	8002790 <scalbn+0xa8>
 800275e:	2a00      	cmp	r2, #0
 8002760:	dd08      	ble.n	8002774 <scalbn+0x8c>
 8002762:	f023 43ff 	bic.w	r3, r3, #2139095040	; 0x7f800000
 8002766:	f423 03e0 	bic.w	r3, r3, #7340032	; 0x700000
 800276a:	ea43 5502 	orr.w	r5, r3, r2, lsl #20
 800276e:	ec45 4b10 	vmov	d0, r4, r5
 8002772:	bd70      	pop	{r4, r5, r6, pc}
 8002774:	f112 0f35 	cmn.w	r2, #53	; 0x35
 8002778:	da19      	bge.n	80027ae <scalbn+0xc6>
 800277a:	f24c 3350 	movw	r3, #50000	; 0xc350
 800277e:	429e      	cmp	r6, r3
 8002780:	f005 4300 	and.w	r3, r5, #2147483648	; 0x80000000
 8002784:	dd0a      	ble.n	800279c <scalbn+0xb4>
 8002786:	a112      	add	r1, pc, #72	; (adr r1, 80027d0 <scalbn+0xe8>)
 8002788:	e9d1 0100 	ldrd	r0, r1, [r1]
 800278c:	2b00      	cmp	r3, #0
 800278e:	d1e2      	bne.n	8002756 <scalbn+0x6e>
 8002790:	a30f      	add	r3, pc, #60	; (adr r3, 80027d0 <scalbn+0xe8>)
 8002792:	e9d3 2300 	ldrd	r2, r3, [r3]
 8002796:	f7fd fed3 	bl	8000540 <__aeabi_dmul>
 800279a:	e7cb      	b.n	8002734 <scalbn+0x4c>
 800279c:	a10a      	add	r1, pc, #40	; (adr r1, 80027c8 <scalbn+0xe0>)
 800279e:	e9d1 0100 	ldrd	r0, r1, [r1]
 80027a2:	2b00      	cmp	r3, #0
 80027a4:	d0b8      	beq.n	8002718 <scalbn+0x30>
 80027a6:	a10e      	add	r1, pc, #56	; (adr r1, 80027e0 <scalbn+0xf8>)
 80027a8:	e9d1 0100 	ldrd	r0, r1, [r1]
 80027ac:	e7b4      	b.n	8002718 <scalbn+0x30>
 80027ae:	f023 43ff 	bic.w	r3, r3, #2139095040	; 0x7f800000
 80027b2:	3236      	adds	r2, #54	; 0x36
 80027b4:	f423 03e0 	bic.w	r3, r3, #7340032	; 0x700000
 80027b8:	ea43 5102 	orr.w	r1, r3, r2, lsl #20
 80027bc:	4620      	mov	r0, r4
 80027be:	4b0c      	ldr	r3, [pc, #48]	; (80027f0 <scalbn+0x108>)
 80027c0:	2200      	movs	r2, #0
 80027c2:	e7e8      	b.n	8002796 <scalbn+0xae>
 80027c4:	f3af 8000 	nop.w
 80027c8:	c2f8f359 	.word	0xc2f8f359
 80027cc:	01a56e1f 	.word	0x01a56e1f
 80027d0:	8800759c 	.word	0x8800759c
 80027d4:	7e37e43c 	.word	0x7e37e43c
 80027d8:	8800759c 	.word	0x8800759c
 80027dc:	fe37e43c 	.word	0xfe37e43c
 80027e0:	c2f8f359 	.word	0xc2f8f359
 80027e4:	81a56e1f 	.word	0x81a56e1f
 80027e8:	43500000 	.word	0x43500000
 80027ec:	ffff3cb0 	.word	0xffff3cb0
 80027f0:	3c900000 	.word	0x3c900000

080027f4 <_init>:
 80027f4:	b5f8      	push	{r3, r4, r5, r6, r7, lr}
 80027f6:	bf00      	nop
 80027f8:	bcf8      	pop	{r3, r4, r5, r6, r7}
 80027fa:	bc08      	pop	{r3}
 80027fc:	469e      	mov	lr, r3
 80027fe:	4770      	bx	lr

08002800 <_fini>:
 8002800:	b5f8      	push	{r3, r4, r5, r6, r7, lr}
 8002802:	bf00      	nop
 8002804:	bcf8      	pop	{r3, r4, r5, r6, r7}
 8002806:	bc08      	pop	{r3}
 8002808:	469e      	mov	lr, r3
 800280a:	4770      	bx	lr
